
rtarget:     file format elf64-x86-64


Disassembly of section .init:

0000000000401000 <_init>:
  401000:	48 83 ec 08          	sub    $0x8,%rsp
  401004:	48 8b 05 ed 5f 00 00 	mov    0x5fed(%rip),%rax        # 406ff8 <__gmon_start__>
  40100b:	48 85 c0             	test   %rax,%rax
  40100e:	74 02                	je     401012 <_init+0x12>
  401010:	ff d0                	callq  *%rax
  401012:	48 83 c4 08          	add    $0x8,%rsp
  401016:	c3                   	retq   

Disassembly of section .plt:

0000000000401020 <.plt>:
  401020:	ff 35 e2 5f 00 00    	pushq  0x5fe2(%rip)        # 407008 <_GLOBAL_OFFSET_TABLE_+0x8>
  401026:	ff 25 e4 5f 00 00    	jmpq   *0x5fe4(%rip)        # 407010 <_GLOBAL_OFFSET_TABLE_+0x10>
  40102c:	0f 1f 40 00          	nopl   0x0(%rax)

0000000000401030 <strcasecmp@plt>:
  401030:	ff 25 e2 5f 00 00    	jmpq   *0x5fe2(%rip)        # 407018 <strcasecmp@GLIBC_2.2.5>
  401036:	68 00 00 00 00       	pushq  $0x0
  40103b:	e9 e0 ff ff ff       	jmpq   401020 <.plt>

0000000000401040 <__errno_location@plt>:
  401040:	ff 25 da 5f 00 00    	jmpq   *0x5fda(%rip)        # 407020 <__errno_location@GLIBC_2.2.5>
  401046:	68 01 00 00 00       	pushq  $0x1
  40104b:	e9 d0 ff ff ff       	jmpq   401020 <.plt>

0000000000401050 <srandom@plt>:
  401050:	ff 25 d2 5f 00 00    	jmpq   *0x5fd2(%rip)        # 407028 <srandom@GLIBC_2.2.5>
  401056:	68 02 00 00 00       	pushq  $0x2
  40105b:	e9 c0 ff ff ff       	jmpq   401020 <.plt>

0000000000401060 <strncmp@plt>:
  401060:	ff 25 ca 5f 00 00    	jmpq   *0x5fca(%rip)        # 407030 <strncmp@GLIBC_2.2.5>
  401066:	68 03 00 00 00       	pushq  $0x3
  40106b:	e9 b0 ff ff ff       	jmpq   401020 <.plt>

0000000000401070 <strcpy@plt>:
  401070:	ff 25 c2 5f 00 00    	jmpq   *0x5fc2(%rip)        # 407038 <strcpy@GLIBC_2.2.5>
  401076:	68 04 00 00 00       	pushq  $0x4
  40107b:	e9 a0 ff ff ff       	jmpq   401020 <.plt>

0000000000401080 <puts@plt>:
  401080:	ff 25 ba 5f 00 00    	jmpq   *0x5fba(%rip)        # 407040 <puts@GLIBC_2.2.5>
  401086:	68 05 00 00 00       	pushq  $0x5
  40108b:	e9 90 ff ff ff       	jmpq   401020 <.plt>

0000000000401090 <write@plt>:
  401090:	ff 25 b2 5f 00 00    	jmpq   *0x5fb2(%rip)        # 407048 <write@GLIBC_2.2.5>
  401096:	68 06 00 00 00       	pushq  $0x6
  40109b:	e9 80 ff ff ff       	jmpq   401020 <.plt>

00000000004010a0 <mmap@plt>:
  4010a0:	ff 25 aa 5f 00 00    	jmpq   *0x5faa(%rip)        # 407050 <mmap@GLIBC_2.2.5>
  4010a6:	68 07 00 00 00       	pushq  $0x7
  4010ab:	e9 70 ff ff ff       	jmpq   401020 <.plt>

00000000004010b0 <printf@plt>:
  4010b0:	ff 25 a2 5f 00 00    	jmpq   *0x5fa2(%rip)        # 407058 <printf@GLIBC_2.2.5>
  4010b6:	68 08 00 00 00       	pushq  $0x8
  4010bb:	e9 60 ff ff ff       	jmpq   401020 <.plt>

00000000004010c0 <memset@plt>:
  4010c0:	ff 25 9a 5f 00 00    	jmpq   *0x5f9a(%rip)        # 407060 <memset@GLIBC_2.2.5>
  4010c6:	68 09 00 00 00       	pushq  $0x9
  4010cb:	e9 50 ff ff ff       	jmpq   401020 <.plt>

00000000004010d0 <alarm@plt>:
  4010d0:	ff 25 92 5f 00 00    	jmpq   *0x5f92(%rip)        # 407068 <alarm@GLIBC_2.2.5>
  4010d6:	68 0a 00 00 00       	pushq  $0xa
  4010db:	e9 40 ff ff ff       	jmpq   401020 <.plt>

00000000004010e0 <close@plt>:
  4010e0:	ff 25 8a 5f 00 00    	jmpq   *0x5f8a(%rip)        # 407070 <close@GLIBC_2.2.5>
  4010e6:	68 0b 00 00 00       	pushq  $0xb
  4010eb:	e9 30 ff ff ff       	jmpq   401020 <.plt>

00000000004010f0 <read@plt>:
  4010f0:	ff 25 82 5f 00 00    	jmpq   *0x5f82(%rip)        # 407078 <read@GLIBC_2.2.5>
  4010f6:	68 0c 00 00 00       	pushq  $0xc
  4010fb:	e9 20 ff ff ff       	jmpq   401020 <.plt>

0000000000401100 <signal@plt>:
  401100:	ff 25 7a 5f 00 00    	jmpq   *0x5f7a(%rip)        # 407080 <signal@GLIBC_2.2.5>
  401106:	68 0d 00 00 00       	pushq  $0xd
  40110b:	e9 10 ff ff ff       	jmpq   401020 <.plt>

0000000000401110 <gethostbyname@plt>:
  401110:	ff 25 72 5f 00 00    	jmpq   *0x5f72(%rip)        # 407088 <gethostbyname@GLIBC_2.2.5>
  401116:	68 0e 00 00 00       	pushq  $0xe
  40111b:	e9 00 ff ff ff       	jmpq   401020 <.plt>

0000000000401120 <fprintf@plt>:
  401120:	ff 25 6a 5f 00 00    	jmpq   *0x5f6a(%rip)        # 407090 <fprintf@GLIBC_2.2.5>
  401126:	68 0f 00 00 00       	pushq  $0xf
  40112b:	e9 f0 fe ff ff       	jmpq   401020 <.plt>

0000000000401130 <strtol@plt>:
  401130:	ff 25 62 5f 00 00    	jmpq   *0x5f62(%rip)        # 407098 <strtol@GLIBC_2.2.5>
  401136:	68 10 00 00 00       	pushq  $0x10
  40113b:	e9 e0 fe ff ff       	jmpq   401020 <.plt>

0000000000401140 <memcpy@plt>:
  401140:	ff 25 5a 5f 00 00    	jmpq   *0x5f5a(%rip)        # 4070a0 <memcpy@GLIBC_2.14>
  401146:	68 11 00 00 00       	pushq  $0x11
  40114b:	e9 d0 fe ff ff       	jmpq   401020 <.plt>

0000000000401150 <time@plt>:
  401150:	ff 25 52 5f 00 00    	jmpq   *0x5f52(%rip)        # 4070a8 <time@GLIBC_2.2.5>
  401156:	68 12 00 00 00       	pushq  $0x12
  40115b:	e9 c0 fe ff ff       	jmpq   401020 <.plt>

0000000000401160 <random@plt>:
  401160:	ff 25 4a 5f 00 00    	jmpq   *0x5f4a(%rip)        # 4070b0 <random@GLIBC_2.2.5>
  401166:	68 13 00 00 00       	pushq  $0x13
  40116b:	e9 b0 fe ff ff       	jmpq   401020 <.plt>

0000000000401170 <__isoc99_sscanf@plt>:
  401170:	ff 25 42 5f 00 00    	jmpq   *0x5f42(%rip)        # 4070b8 <__isoc99_sscanf@GLIBC_2.7>
  401176:	68 14 00 00 00       	pushq  $0x14
  40117b:	e9 a0 fe ff ff       	jmpq   401020 <.plt>

0000000000401180 <munmap@plt>:
  401180:	ff 25 3a 5f 00 00    	jmpq   *0x5f3a(%rip)        # 4070c0 <munmap@GLIBC_2.2.5>
  401186:	68 15 00 00 00       	pushq  $0x15
  40118b:	e9 90 fe ff ff       	jmpq   401020 <.plt>

0000000000401190 <memmove@plt>:
  401190:	ff 25 32 5f 00 00    	jmpq   *0x5f32(%rip)        # 4070c8 <memmove@GLIBC_2.2.5>
  401196:	68 16 00 00 00       	pushq  $0x16
  40119b:	e9 80 fe ff ff       	jmpq   401020 <.plt>

00000000004011a0 <fopen@plt>:
  4011a0:	ff 25 2a 5f 00 00    	jmpq   *0x5f2a(%rip)        # 4070d0 <fopen@GLIBC_2.2.5>
  4011a6:	68 17 00 00 00       	pushq  $0x17
  4011ab:	e9 70 fe ff ff       	jmpq   401020 <.plt>

00000000004011b0 <getopt@plt>:
  4011b0:	ff 25 22 5f 00 00    	jmpq   *0x5f22(%rip)        # 4070d8 <getopt@GLIBC_2.2.5>
  4011b6:	68 18 00 00 00       	pushq  $0x18
  4011bb:	e9 60 fe ff ff       	jmpq   401020 <.plt>

00000000004011c0 <strtoul@plt>:
  4011c0:	ff 25 1a 5f 00 00    	jmpq   *0x5f1a(%rip)        # 4070e0 <strtoul@GLIBC_2.2.5>
  4011c6:	68 19 00 00 00       	pushq  $0x19
  4011cb:	e9 50 fe ff ff       	jmpq   401020 <.plt>

00000000004011d0 <gethostname@plt>:
  4011d0:	ff 25 12 5f 00 00    	jmpq   *0x5f12(%rip)        # 4070e8 <gethostname@GLIBC_2.2.5>
  4011d6:	68 1a 00 00 00       	pushq  $0x1a
  4011db:	e9 40 fe ff ff       	jmpq   401020 <.plt>

00000000004011e0 <sprintf@plt>:
  4011e0:	ff 25 0a 5f 00 00    	jmpq   *0x5f0a(%rip)        # 4070f0 <sprintf@GLIBC_2.2.5>
  4011e6:	68 1b 00 00 00       	pushq  $0x1b
  4011eb:	e9 30 fe ff ff       	jmpq   401020 <.plt>

00000000004011f0 <exit@plt>:
  4011f0:	ff 25 02 5f 00 00    	jmpq   *0x5f02(%rip)        # 4070f8 <exit@GLIBC_2.2.5>
  4011f6:	68 1c 00 00 00       	pushq  $0x1c
  4011fb:	e9 20 fe ff ff       	jmpq   401020 <.plt>

0000000000401200 <connect@plt>:
  401200:	ff 25 fa 5e 00 00    	jmpq   *0x5efa(%rip)        # 407100 <connect@GLIBC_2.2.5>
  401206:	68 1d 00 00 00       	pushq  $0x1d
  40120b:	e9 10 fe ff ff       	jmpq   401020 <.plt>

0000000000401210 <getc@plt>:
  401210:	ff 25 f2 5e 00 00    	jmpq   *0x5ef2(%rip)        # 407108 <getc@GLIBC_2.2.5>
  401216:	68 1e 00 00 00       	pushq  $0x1e
  40121b:	e9 00 fe ff ff       	jmpq   401020 <.plt>

0000000000401220 <socket@plt>:
  401220:	ff 25 ea 5e 00 00    	jmpq   *0x5eea(%rip)        # 407110 <socket@GLIBC_2.2.5>
  401226:	68 1f 00 00 00       	pushq  $0x1f
  40122b:	e9 f0 fd ff ff       	jmpq   401020 <.plt>

Disassembly of section .text:

0000000000401230 <_start>:
  401230:	31 ed                	xor    %ebp,%ebp
  401232:	49 89 d1             	mov    %rdx,%r9
  401235:	5e                   	pop    %rsi
  401236:	48 89 e2             	mov    %rsp,%rdx
  401239:	48 83 e4 f0          	and    $0xfffffffffffffff0,%rsp
  40123d:	50                   	push   %rax
  40123e:	54                   	push   %rsp
  40123f:	49 c7 c0 50 31 40 00 	mov    $0x403150,%r8
  401246:	48 c7 c1 f0 30 40 00 	mov    $0x4030f0,%rcx
  40124d:	48 c7 c7 f6 14 40 00 	mov    $0x4014f6,%rdi
  401254:	ff 15 96 5d 00 00    	callq  *0x5d96(%rip)        # 406ff0 <__libc_start_main@GLIBC_2.2.5>
  40125a:	f4                   	hlt    
  40125b:	0f 1f 44 00 00       	nopl   0x0(%rax,%rax,1)

0000000000401260 <_dl_relocate_static_pie>:
  401260:	c3                   	retq   
  401261:	66 2e 0f 1f 84 00 00 	nopw   %cs:0x0(%rax,%rax,1)
  401268:	00 00 00 
  40126b:	0f 1f 44 00 00       	nopl   0x0(%rax,%rax,1)

0000000000401270 <deregister_tm_clones>:
  401270:	b8 88 74 40 00       	mov    $0x407488,%eax
  401275:	48 3d 88 74 40 00    	cmp    $0x407488,%rax
  40127b:	74 13                	je     401290 <deregister_tm_clones+0x20>
  40127d:	b8 00 00 00 00       	mov    $0x0,%eax
  401282:	48 85 c0             	test   %rax,%rax
  401285:	74 09                	je     401290 <deregister_tm_clones+0x20>
  401287:	bf 88 74 40 00       	mov    $0x407488,%edi
  40128c:	ff e0                	jmpq   *%rax
  40128e:	66 90                	xchg   %ax,%ax
  401290:	c3                   	retq   
  401291:	66 66 2e 0f 1f 84 00 	data16 nopw %cs:0x0(%rax,%rax,1)
  401298:	00 00 00 00 
  40129c:	0f 1f 40 00          	nopl   0x0(%rax)

00000000004012a0 <register_tm_clones>:
  4012a0:	be 88 74 40 00       	mov    $0x407488,%esi
  4012a5:	48 81 ee 88 74 40 00 	sub    $0x407488,%rsi
  4012ac:	48 c1 fe 03          	sar    $0x3,%rsi
  4012b0:	48 89 f0             	mov    %rsi,%rax
  4012b3:	48 c1 e8 3f          	shr    $0x3f,%rax
  4012b7:	48 01 c6             	add    %rax,%rsi
  4012ba:	48 d1 fe             	sar    %rsi
  4012bd:	74 11                	je     4012d0 <register_tm_clones+0x30>
  4012bf:	b8 00 00 00 00       	mov    $0x0,%eax
  4012c4:	48 85 c0             	test   %rax,%rax
  4012c7:	74 07                	je     4012d0 <register_tm_clones+0x30>
  4012c9:	bf 88 74 40 00       	mov    $0x407488,%edi
  4012ce:	ff e0                	jmpq   *%rax
  4012d0:	c3                   	retq   
  4012d1:	66 66 2e 0f 1f 84 00 	data16 nopw %cs:0x0(%rax,%rax,1)
  4012d8:	00 00 00 00 
  4012dc:	0f 1f 40 00          	nopl   0x0(%rax)

00000000004012e0 <__do_global_dtors_aux>:
  4012e0:	80 3d e1 61 00 00 00 	cmpb   $0x0,0x61e1(%rip)        # 4074c8 <completed.7325>
  4012e7:	75 17                	jne    401300 <__do_global_dtors_aux+0x20>
  4012e9:	55                   	push   %rbp
  4012ea:	48 89 e5             	mov    %rsp,%rbp
  4012ed:	e8 7e ff ff ff       	callq  401270 <deregister_tm_clones>
  4012f2:	c6 05 cf 61 00 00 01 	movb   $0x1,0x61cf(%rip)        # 4074c8 <completed.7325>
  4012f9:	5d                   	pop    %rbp
  4012fa:	c3                   	retq   
  4012fb:	0f 1f 44 00 00       	nopl   0x0(%rax,%rax,1)
  401300:	c3                   	retq   
  401301:	66 66 2e 0f 1f 84 00 	data16 nopw %cs:0x0(%rax,%rax,1)
  401308:	00 00 00 00 
  40130c:	0f 1f 40 00          	nopl   0x0(%rax)

0000000000401310 <frame_dummy>:
  401310:	eb 8e                	jmp    4012a0 <register_tm_clones>

0000000000401312 <usage>:
  401312:	48 83 ec 08          	sub    $0x8,%rsp
  401316:	48 89 fe             	mov    %rdi,%rsi
  401319:	83 3d ec 61 00 00 00 	cmpl   $0x0,0x61ec(%rip)        # 40750c <is_checker>
  401320:	74 4b                	je     40136d <usage+0x5b>
  401322:	48 8d 3d df 2c 00 00 	lea    0x2cdf(%rip),%rdi        # 404008 <_IO_stdin_used+0x8>
  401329:	b8 00 00 00 00       	mov    $0x0,%eax
  40132e:	e8 7d fd ff ff       	callq  4010b0 <printf@plt>
  401333:	48 8d 3d 06 2d 00 00 	lea    0x2d06(%rip),%rdi        # 404040 <_IO_stdin_used+0x40>
  40133a:	e8 41 fd ff ff       	callq  401080 <puts@plt>
  40133f:	48 8d 3d 72 2e 00 00 	lea    0x2e72(%rip),%rdi        # 4041b8 <_IO_stdin_used+0x1b8>
  401346:	e8 35 fd ff ff       	callq  401080 <puts@plt>
  40134b:	48 8d 3d 16 2d 00 00 	lea    0x2d16(%rip),%rdi        # 404068 <_IO_stdin_used+0x68>
  401352:	e8 29 fd ff ff       	callq  401080 <puts@plt>
  401357:	48 8d 3d 74 2e 00 00 	lea    0x2e74(%rip),%rdi        # 4041d2 <_IO_stdin_used+0x1d2>
  40135e:	e8 1d fd ff ff       	callq  401080 <puts@plt>
  401363:	bf 00 00 00 00       	mov    $0x0,%edi
  401368:	e8 83 fe ff ff       	callq  4011f0 <exit@plt>
  40136d:	48 8d 3d 7a 2e 00 00 	lea    0x2e7a(%rip),%rdi        # 4041ee <_IO_stdin_used+0x1ee>
  401374:	b8 00 00 00 00       	mov    $0x0,%eax
  401379:	e8 32 fd ff ff       	callq  4010b0 <printf@plt>
  40137e:	48 8d 3d 0b 2d 00 00 	lea    0x2d0b(%rip),%rdi        # 404090 <_IO_stdin_used+0x90>
  401385:	e8 f6 fc ff ff       	callq  401080 <puts@plt>
  40138a:	48 8d 3d 27 2d 00 00 	lea    0x2d27(%rip),%rdi        # 4040b8 <_IO_stdin_used+0xb8>
  401391:	e8 ea fc ff ff       	callq  401080 <puts@plt>
  401396:	48 8d 3d 6f 2e 00 00 	lea    0x2e6f(%rip),%rdi        # 40420c <_IO_stdin_used+0x20c>
  40139d:	e8 de fc ff ff       	callq  401080 <puts@plt>
  4013a2:	eb bf                	jmp    401363 <usage+0x51>

00000000004013a4 <initialize_target>:
  4013a4:	55                   	push   %rbp
  4013a5:	53                   	push   %rbx
  4013a6:	48 81 ec 08 21 00 00 	sub    $0x2108,%rsp
  4013ad:	89 f5                	mov    %esi,%ebp
  4013af:	89 3d 47 61 00 00    	mov    %edi,0x6147(%rip)        # 4074fc <check_level>
  4013b5:	8b 3d 75 5d 00 00    	mov    0x5d75(%rip),%edi        # 407130 <target_id>
  4013bb:	e8 11 1d 00 00       	callq  4030d1 <gencookie>
  4013c0:	89 05 42 61 00 00    	mov    %eax,0x6142(%rip)        # 407508 <cookie>
  4013c6:	89 c7                	mov    %eax,%edi
  4013c8:	e8 04 1d 00 00       	callq  4030d1 <gencookie>
  4013cd:	89 05 31 61 00 00    	mov    %eax,0x6131(%rip)        # 407504 <authkey>
  4013d3:	8b 05 57 5d 00 00    	mov    0x5d57(%rip),%eax        # 407130 <target_id>
  4013d9:	8d 78 01             	lea    0x1(%rax),%edi
  4013dc:	e8 6f fc ff ff       	callq  401050 <srandom@plt>
  4013e1:	e8 7a fd ff ff       	callq  401160 <random@plt>
  4013e6:	89 c7                	mov    %eax,%edi
  4013e8:	e8 de 02 00 00       	callq  4016cb <scramble>
  4013ed:	89 c3                	mov    %eax,%ebx
  4013ef:	85 ed                	test   %ebp,%ebp
  4013f1:	75 3d                	jne    401430 <initialize_target+0x8c>
  4013f3:	b8 00 00 00 00       	mov    $0x0,%eax
  4013f8:	01 d8                	add    %ebx,%eax
  4013fa:	0f b7 c0             	movzwl %ax,%eax
  4013fd:	8d 04 c5 00 01 00 00 	lea    0x100(,%rax,8),%eax
  401404:	89 c0                	mov    %eax,%eax
  401406:	48 89 05 73 60 00 00 	mov    %rax,0x6073(%rip)        # 407480 <buf_offset>
  40140d:	c6 05 14 6d 00 00 72 	movb   $0x72,0x6d14(%rip)        # 408128 <target_prefix>
  401414:	83 3d dd 60 00 00 00 	cmpl   $0x0,0x60dd(%rip)        # 4074f8 <notify>
  40141b:	74 09                	je     401426 <initialize_target+0x82>
  40141d:	83 3d e8 60 00 00 00 	cmpl   $0x0,0x60e8(%rip)        # 40750c <is_checker>
  401424:	74 22                	je     401448 <initialize_target+0xa4>
  401426:	48 81 c4 08 21 00 00 	add    $0x2108,%rsp
  40142d:	5b                   	pop    %rbx
  40142e:	5d                   	pop    %rbp
  40142f:	c3                   	retq   
  401430:	bf 00 00 00 00       	mov    $0x0,%edi
  401435:	e8 16 fd ff ff       	callq  401150 <time@plt>
  40143a:	89 c7                	mov    %eax,%edi
  40143c:	e8 0f fc ff ff       	callq  401050 <srandom@plt>
  401441:	e8 1a fd ff ff       	callq  401160 <random@plt>
  401446:	eb b0                	jmp    4013f8 <initialize_target+0x54>
  401448:	48 89 e7             	mov    %rsp,%rdi
  40144b:	be 00 01 00 00       	mov    $0x100,%esi
  401450:	e8 7b fd ff ff       	callq  4011d0 <gethostname@plt>
  401455:	89 c5                	mov    %eax,%ebp
  401457:	85 c0                	test   %eax,%eax
  401459:	75 26                	jne    401481 <initialize_target+0xdd>
  40145b:	89 c3                	mov    %eax,%ebx
  40145d:	48 63 c3             	movslq %ebx,%rax
  401460:	48 8d 15 f9 5c 00 00 	lea    0x5cf9(%rip),%rdx        # 407160 <host_table>
  401467:	48 8b 3c c2          	mov    (%rdx,%rax,8),%rdi
  40146b:	48 85 ff             	test   %rdi,%rdi
  40146e:	74 2c                	je     40149c <initialize_target+0xf8>
  401470:	48 89 e6             	mov    %rsp,%rsi
  401473:	e8 b8 fb ff ff       	callq  401030 <strcasecmp@plt>
  401478:	85 c0                	test   %eax,%eax
  40147a:	74 1b                	je     401497 <initialize_target+0xf3>
  40147c:	83 c3 01             	add    $0x1,%ebx
  40147f:	eb dc                	jmp    40145d <initialize_target+0xb9>
  401481:	48 8d 3d 60 2c 00 00 	lea    0x2c60(%rip),%rdi        # 4040e8 <_IO_stdin_used+0xe8>
  401488:	e8 f3 fb ff ff       	callq  401080 <puts@plt>
  40148d:	bf 08 00 00 00       	mov    $0x8,%edi
  401492:	e8 59 fd ff ff       	callq  4011f0 <exit@plt>
  401497:	bd 01 00 00 00       	mov    $0x1,%ebp
  40149c:	85 ed                	test   %ebp,%ebp
  40149e:	74 38                	je     4014d8 <initialize_target+0x134>
  4014a0:	48 8d bc 24 00 01 00 	lea    0x100(%rsp),%rdi
  4014a7:	00 
  4014a8:	e8 89 19 00 00       	callq  402e36 <init_driver>
  4014ad:	85 c0                	test   %eax,%eax
  4014af:	0f 89 71 ff ff ff    	jns    401426 <initialize_target+0x82>
  4014b5:	48 8d b4 24 00 01 00 	lea    0x100(%rsp),%rsi
  4014bc:	00 
  4014bd:	48 8d 3d 9c 2c 00 00 	lea    0x2c9c(%rip),%rdi        # 404160 <_IO_stdin_used+0x160>
  4014c4:	b8 00 00 00 00       	mov    $0x0,%eax
  4014c9:	e8 e2 fb ff ff       	callq  4010b0 <printf@plt>
  4014ce:	bf 08 00 00 00       	mov    $0x8,%edi
  4014d3:	e8 18 fd ff ff       	callq  4011f0 <exit@plt>
  4014d8:	48 89 e6             	mov    %rsp,%rsi
  4014db:	48 8d 3d 3e 2c 00 00 	lea    0x2c3e(%rip),%rdi        # 404120 <_IO_stdin_used+0x120>
  4014e2:	b8 00 00 00 00       	mov    $0x0,%eax
  4014e7:	e8 c4 fb ff ff       	callq  4010b0 <printf@plt>
  4014ec:	bf 08 00 00 00       	mov    $0x8,%edi
  4014f1:	e8 fa fc ff ff       	callq  4011f0 <exit@plt>

00000000004014f6 <main>:
  4014f6:	41 56                	push   %r14
  4014f8:	41 55                	push   %r13
  4014fa:	41 54                	push   %r12
  4014fc:	55                   	push   %rbp
  4014fd:	53                   	push   %rbx
  4014fe:	89 fd                	mov    %edi,%ebp
  401500:	48 89 f3             	mov    %rsi,%rbx
  401503:	48 c7 c6 08 22 40 00 	mov    $0x402208,%rsi
  40150a:	bf 0b 00 00 00       	mov    $0xb,%edi
  40150f:	e8 ec fb ff ff       	callq  401100 <signal@plt>
  401514:	48 c7 c6 b4 21 40 00 	mov    $0x4021b4,%rsi
  40151b:	bf 07 00 00 00       	mov    $0x7,%edi
  401520:	e8 db fb ff ff       	callq  401100 <signal@plt>
  401525:	48 c7 c6 5c 22 40 00 	mov    $0x40225c,%rsi
  40152c:	bf 04 00 00 00       	mov    $0x4,%edi
  401531:	e8 ca fb ff ff       	callq  401100 <signal@plt>
  401536:	83 3d cf 5f 00 00 00 	cmpl   $0x0,0x5fcf(%rip)        # 40750c <is_checker>
  40153d:	75 26                	jne    401565 <main+0x6f>
  40153f:	4c 8d 25 e7 2c 00 00 	lea    0x2ce7(%rip),%r12        # 40422d <_IO_stdin_used+0x22d>
  401546:	48 8b 05 53 5f 00 00 	mov    0x5f53(%rip),%rax        # 4074a0 <stdin@@GLIBC_2.2.5>
  40154d:	48 89 05 9c 5f 00 00 	mov    %rax,0x5f9c(%rip)        # 4074f0 <infile>
  401554:	41 bd 00 00 00 00    	mov    $0x0,%r13d
  40155a:	41 be 00 00 00 00    	mov    $0x0,%r14d
  401560:	e9 88 00 00 00       	jmpq   4015ed <main+0xf7>
  401565:	48 c7 c6 b0 22 40 00 	mov    $0x4022b0,%rsi
  40156c:	bf 0e 00 00 00       	mov    $0xe,%edi
  401571:	e8 8a fb ff ff       	callq  401100 <signal@plt>
  401576:	bf 05 00 00 00       	mov    $0x5,%edi
  40157b:	e8 50 fb ff ff       	callq  4010d0 <alarm@plt>
  401580:	4c 8d 25 9e 2c 00 00 	lea    0x2c9e(%rip),%r12        # 404225 <_IO_stdin_used+0x225>
  401587:	eb bd                	jmp    401546 <main+0x50>
  401589:	48 8b 3b             	mov    (%rbx),%rdi
  40158c:	e8 81 fd ff ff       	callq  401312 <usage>
  401591:	48 8d 35 da 2e 00 00 	lea    0x2eda(%rip),%rsi        # 404472 <_IO_stdin_used+0x472>
  401598:	48 8b 3d 09 5f 00 00 	mov    0x5f09(%rip),%rdi        # 4074a8 <optarg@@GLIBC_2.2.5>
  40159f:	e8 fc fb ff ff       	callq  4011a0 <fopen@plt>
  4015a4:	48 89 05 45 5f 00 00 	mov    %rax,0x5f45(%rip)        # 4074f0 <infile>
  4015ab:	48 85 c0             	test   %rax,%rax
  4015ae:	75 3d                	jne    4015ed <main+0xf7>
  4015b0:	48 8b 15 f1 5e 00 00 	mov    0x5ef1(%rip),%rdx        # 4074a8 <optarg@@GLIBC_2.2.5>
  4015b7:	48 8d 35 74 2c 00 00 	lea    0x2c74(%rip),%rsi        # 404232 <_IO_stdin_used+0x232>
  4015be:	48 8b 3d fb 5e 00 00 	mov    0x5efb(%rip),%rdi        # 4074c0 <stderr@@GLIBC_2.2.5>
  4015c5:	e8 56 fb ff ff       	callq  401120 <fprintf@plt>
  4015ca:	b8 01 00 00 00       	mov    $0x1,%eax
  4015cf:	e9 ce 00 00 00       	jmpq   4016a2 <main+0x1ac>
  4015d4:	ba 10 00 00 00       	mov    $0x10,%edx
  4015d9:	be 00 00 00 00       	mov    $0x0,%esi
  4015de:	48 8b 3d c3 5e 00 00 	mov    0x5ec3(%rip),%rdi        # 4074a8 <optarg@@GLIBC_2.2.5>
  4015e5:	e8 d6 fb ff ff       	callq  4011c0 <strtoul@plt>
  4015ea:	41 89 c6             	mov    %eax,%r14d
  4015ed:	4c 89 e2             	mov    %r12,%rdx
  4015f0:	48 89 de             	mov    %rbx,%rsi
  4015f3:	89 ef                	mov    %ebp,%edi
  4015f5:	e8 b6 fb ff ff       	callq  4011b0 <getopt@plt>
  4015fa:	3c ff                	cmp    $0xff,%al
  4015fc:	74 5d                	je     40165b <main+0x165>
  4015fe:	0f be f0             	movsbl %al,%esi
  401601:	83 e8 61             	sub    $0x61,%eax
  401604:	3c 10                	cmp    $0x10,%al
  401606:	77 3a                	ja     401642 <main+0x14c>
  401608:	0f b6 c0             	movzbl %al,%eax
  40160b:	48 8d 15 5e 2c 00 00 	lea    0x2c5e(%rip),%rdx        # 404270 <_IO_stdin_used+0x270>
  401612:	48 63 04 82          	movslq (%rdx,%rax,4),%rax
  401616:	48 01 d0             	add    %rdx,%rax
  401619:	ff e0                	jmpq   *%rax
  40161b:	ba 0a 00 00 00       	mov    $0xa,%edx
  401620:	be 00 00 00 00       	mov    $0x0,%esi
  401625:	48 8b 3d 7c 5e 00 00 	mov    0x5e7c(%rip),%rdi        # 4074a8 <optarg@@GLIBC_2.2.5>
  40162c:	e8 ff fa ff ff       	callq  401130 <strtol@plt>
  401631:	41 89 c5             	mov    %eax,%r13d
  401634:	eb b7                	jmp    4015ed <main+0xf7>
  401636:	c7 05 b8 5e 00 00 00 	movl   $0x0,0x5eb8(%rip)        # 4074f8 <notify>
  40163d:	00 00 00 
  401640:	eb ab                	jmp    4015ed <main+0xf7>
  401642:	48 8d 3d 06 2c 00 00 	lea    0x2c06(%rip),%rdi        # 40424f <_IO_stdin_used+0x24f>
  401649:	b8 00 00 00 00       	mov    $0x0,%eax
  40164e:	e8 5d fa ff ff       	callq  4010b0 <printf@plt>
  401653:	48 8b 3b             	mov    (%rbx),%rdi
  401656:	e8 b7 fc ff ff       	callq  401312 <usage>
  40165b:	be 01 00 00 00       	mov    $0x1,%esi
  401660:	44 89 ef             	mov    %r13d,%edi
  401663:	e8 3c fd ff ff       	callq  4013a4 <initialize_target>
  401668:	83 3d 9d 5e 00 00 00 	cmpl   $0x0,0x5e9d(%rip)        # 40750c <is_checker>
  40166f:	74 09                	je     40167a <main+0x184>
  401671:	44 39 35 8c 5e 00 00 	cmp    %r14d,0x5e8c(%rip)        # 407504 <authkey>
  401678:	75 31                	jne    4016ab <main+0x1b5>
  40167a:	8b 35 88 5e 00 00    	mov    0x5e88(%rip),%esi        # 407508 <cookie>
  401680:	48 8d 3d db 2b 00 00 	lea    0x2bdb(%rip),%rdi        # 404262 <_IO_stdin_used+0x262>
  401687:	b8 00 00 00 00       	mov    $0x0,%eax
  40168c:	e8 1f fa ff ff       	callq  4010b0 <printf@plt>
  401691:	48 8b 3d e8 5d 00 00 	mov    0x5de8(%rip),%rdi        # 407480 <buf_offset>
  401698:	e8 65 0c 00 00       	callq  402302 <launch>
  40169d:	b8 00 00 00 00       	mov    $0x0,%eax
  4016a2:	5b                   	pop    %rbx
  4016a3:	5d                   	pop    %rbp
  4016a4:	41 5c                	pop    %r12
  4016a6:	41 5d                	pop    %r13
  4016a8:	41 5e                	pop    %r14
  4016aa:	c3                   	retq   
  4016ab:	44 89 f6             	mov    %r14d,%esi
  4016ae:	48 8d 3d d3 2a 00 00 	lea    0x2ad3(%rip),%rdi        # 404188 <_IO_stdin_used+0x188>
  4016b5:	b8 00 00 00 00       	mov    $0x0,%eax
  4016ba:	e8 f1 f9 ff ff       	callq  4010b0 <printf@plt>
  4016bf:	b8 00 00 00 00       	mov    $0x0,%eax
  4016c4:	e8 d8 08 00 00       	callq  401fa1 <check_fail>
  4016c9:	eb af                	jmp    40167a <main+0x184>

00000000004016cb <scramble>:
  4016cb:	b8 00 00 00 00       	mov    $0x0,%eax
  4016d0:	83 f8 09             	cmp    $0x9,%eax
  4016d3:	77 13                	ja     4016e8 <scramble+0x1d>
  4016d5:	69 d0 2d 73 00 00    	imul   $0x732d,%eax,%edx
  4016db:	01 fa                	add    %edi,%edx
  4016dd:	89 c1                	mov    %eax,%ecx
  4016df:	89 54 8c d0          	mov    %edx,-0x30(%rsp,%rcx,4)
  4016e3:	83 c0 01             	add    $0x1,%eax
  4016e6:	eb e8                	jmp    4016d0 <scramble+0x5>
  4016e8:	8b 44 24 e8          	mov    -0x18(%rsp),%eax
  4016ec:	69 c0 95 d5 00 00    	imul   $0xd595,%eax,%eax
  4016f2:	89 44 24 e8          	mov    %eax,-0x18(%rsp)
  4016f6:	8b 44 24 f4          	mov    -0xc(%rsp),%eax
  4016fa:	69 c0 4d bf 00 00    	imul   $0xbf4d,%eax,%eax
  401700:	89 44 24 f4          	mov    %eax,-0xc(%rsp)
  401704:	8b 44 24 d4          	mov    -0x2c(%rsp),%eax
  401708:	69 c0 b8 0a 00 00    	imul   $0xab8,%eax,%eax
  40170e:	89 44 24 d4          	mov    %eax,-0x2c(%rsp)
  401712:	8b 44 24 e4          	mov    -0x1c(%rsp),%eax
  401716:	69 c0 dd fc 00 00    	imul   $0xfcdd,%eax,%eax
  40171c:	89 44 24 e4          	mov    %eax,-0x1c(%rsp)
  401720:	8b 44 24 f4          	mov    -0xc(%rsp),%eax
  401724:	69 c0 e7 2b 00 00    	imul   $0x2be7,%eax,%eax
  40172a:	89 44 24 f4          	mov    %eax,-0xc(%rsp)
  40172e:	8b 44 24 d0          	mov    -0x30(%rsp),%eax
  401732:	69 c0 4c bb 00 00    	imul   $0xbb4c,%eax,%eax
  401738:	89 44 24 d0          	mov    %eax,-0x30(%rsp)
  40173c:	8b 44 24 d8          	mov    -0x28(%rsp),%eax
  401740:	69 c0 f8 d7 00 00    	imul   $0xd7f8,%eax,%eax
  401746:	89 44 24 d8          	mov    %eax,-0x28(%rsp)
  40174a:	8b 44 24 d4          	mov    -0x2c(%rsp),%eax
  40174e:	69 c0 e8 57 00 00    	imul   $0x57e8,%eax,%eax
  401754:	89 44 24 d4          	mov    %eax,-0x2c(%rsp)
  401758:	8b 44 24 f4          	mov    -0xc(%rsp),%eax
  40175c:	69 c0 ef 3e 00 00    	imul   $0x3eef,%eax,%eax
  401762:	89 44 24 f4          	mov    %eax,-0xc(%rsp)
  401766:	8b 44 24 e8          	mov    -0x18(%rsp),%eax
  40176a:	69 c0 40 9a 00 00    	imul   $0x9a40,%eax,%eax
  401770:	89 44 24 e8          	mov    %eax,-0x18(%rsp)
  401774:	8b 44 24 d4          	mov    -0x2c(%rsp),%eax
  401778:	69 c0 06 46 00 00    	imul   $0x4606,%eax,%eax
  40177e:	89 44 24 d4          	mov    %eax,-0x2c(%rsp)
  401782:	8b 44 24 e4          	mov    -0x1c(%rsp),%eax
  401786:	69 c0 f1 6c 00 00    	imul   $0x6cf1,%eax,%eax
  40178c:	89 44 24 e4          	mov    %eax,-0x1c(%rsp)
  401790:	8b 44 24 d0          	mov    -0x30(%rsp),%eax
  401794:	69 c0 dd fa 00 00    	imul   $0xfadd,%eax,%eax
  40179a:	89 44 24 d0          	mov    %eax,-0x30(%rsp)
  40179e:	8b 44 24 dc          	mov    -0x24(%rsp),%eax
  4017a2:	69 c0 c1 a8 00 00    	imul   $0xa8c1,%eax,%eax
  4017a8:	89 44 24 dc          	mov    %eax,-0x24(%rsp)
  4017ac:	8b 44 24 d8          	mov    -0x28(%rsp),%eax
  4017b0:	69 c0 30 64 00 00    	imul   $0x6430,%eax,%eax
  4017b6:	89 44 24 d8          	mov    %eax,-0x28(%rsp)
  4017ba:	8b 44 24 f4          	mov    -0xc(%rsp),%eax
  4017be:	69 c0 b6 63 00 00    	imul   $0x63b6,%eax,%eax
  4017c4:	89 44 24 f4          	mov    %eax,-0xc(%rsp)
  4017c8:	8b 44 24 e8          	mov    -0x18(%rsp),%eax
  4017cc:	69 c0 b4 e5 00 00    	imul   $0xe5b4,%eax,%eax
  4017d2:	89 44 24 e8          	mov    %eax,-0x18(%rsp)
  4017d6:	8b 44 24 dc          	mov    -0x24(%rsp),%eax
  4017da:	69 c0 27 bd 00 00    	imul   $0xbd27,%eax,%eax
  4017e0:	89 44 24 dc          	mov    %eax,-0x24(%rsp)
  4017e4:	8b 44 24 f0          	mov    -0x10(%rsp),%eax
  4017e8:	69 c0 11 9d 00 00    	imul   $0x9d11,%eax,%eax
  4017ee:	89 44 24 f0          	mov    %eax,-0x10(%rsp)
  4017f2:	8b 44 24 ec          	mov    -0x14(%rsp),%eax
  4017f6:	69 c0 f0 c6 00 00    	imul   $0xc6f0,%eax,%eax
  4017fc:	89 44 24 ec          	mov    %eax,-0x14(%rsp)
  401800:	8b 44 24 d0          	mov    -0x30(%rsp),%eax
  401804:	69 c0 a9 98 00 00    	imul   $0x98a9,%eax,%eax
  40180a:	89 44 24 d0          	mov    %eax,-0x30(%rsp)
  40180e:	8b 44 24 e0          	mov    -0x20(%rsp),%eax
  401812:	69 c0 d7 2b 00 00    	imul   $0x2bd7,%eax,%eax
  401818:	89 44 24 e0          	mov    %eax,-0x20(%rsp)
  40181c:	8b 44 24 d4          	mov    -0x2c(%rsp),%eax
  401820:	69 c0 1b b1 00 00    	imul   $0xb11b,%eax,%eax
  401826:	89 44 24 d4          	mov    %eax,-0x2c(%rsp)
  40182a:	8b 44 24 f0          	mov    -0x10(%rsp),%eax
  40182e:	69 c0 df 8c 00 00    	imul   $0x8cdf,%eax,%eax
  401834:	89 44 24 f0          	mov    %eax,-0x10(%rsp)
  401838:	8b 44 24 d0          	mov    -0x30(%rsp),%eax
  40183c:	69 c0 9a 4a 00 00    	imul   $0x4a9a,%eax,%eax
  401842:	89 44 24 d0          	mov    %eax,-0x30(%rsp)
  401846:	8b 44 24 d8          	mov    -0x28(%rsp),%eax
  40184a:	69 c0 65 bc 00 00    	imul   $0xbc65,%eax,%eax
  401850:	89 44 24 d8          	mov    %eax,-0x28(%rsp)
  401854:	8b 44 24 d8          	mov    -0x28(%rsp),%eax
  401858:	69 c0 a3 50 00 00    	imul   $0x50a3,%eax,%eax
  40185e:	89 44 24 d8          	mov    %eax,-0x28(%rsp)
  401862:	8b 44 24 e8          	mov    -0x18(%rsp),%eax
  401866:	69 c0 ad 55 00 00    	imul   $0x55ad,%eax,%eax
  40186c:	89 44 24 e8          	mov    %eax,-0x18(%rsp)
  401870:	8b 44 24 e0          	mov    -0x20(%rsp),%eax
  401874:	69 c0 54 2b 00 00    	imul   $0x2b54,%eax,%eax
  40187a:	89 44 24 e0          	mov    %eax,-0x20(%rsp)
  40187e:	8b 44 24 e4          	mov    -0x1c(%rsp),%eax
  401882:	69 c0 09 3c 00 00    	imul   $0x3c09,%eax,%eax
  401888:	89 44 24 e4          	mov    %eax,-0x1c(%rsp)
  40188c:	8b 44 24 e0          	mov    -0x20(%rsp),%eax
  401890:	69 c0 9f 09 00 00    	imul   $0x99f,%eax,%eax
  401896:	89 44 24 e0          	mov    %eax,-0x20(%rsp)
  40189a:	8b 44 24 e4          	mov    -0x1c(%rsp),%eax
  40189e:	69 c0 4a c9 00 00    	imul   $0xc94a,%eax,%eax
  4018a4:	89 44 24 e4          	mov    %eax,-0x1c(%rsp)
  4018a8:	8b 44 24 e4          	mov    -0x1c(%rsp),%eax
  4018ac:	69 c0 c4 c2 00 00    	imul   $0xc2c4,%eax,%eax
  4018b2:	89 44 24 e4          	mov    %eax,-0x1c(%rsp)
  4018b6:	8b 44 24 ec          	mov    -0x14(%rsp),%eax
  4018ba:	69 c0 c0 df 00 00    	imul   $0xdfc0,%eax,%eax
  4018c0:	89 44 24 ec          	mov    %eax,-0x14(%rsp)
  4018c4:	8b 44 24 d0          	mov    -0x30(%rsp),%eax
  4018c8:	69 c0 76 40 00 00    	imul   $0x4076,%eax,%eax
  4018ce:	89 44 24 d0          	mov    %eax,-0x30(%rsp)
  4018d2:	8b 44 24 e4          	mov    -0x1c(%rsp),%eax
  4018d6:	69 c0 ce 28 00 00    	imul   $0x28ce,%eax,%eax
  4018dc:	89 44 24 e4          	mov    %eax,-0x1c(%rsp)
  4018e0:	8b 44 24 ec          	mov    -0x14(%rsp),%eax
  4018e4:	69 c0 ed 28 00 00    	imul   $0x28ed,%eax,%eax
  4018ea:	89 44 24 ec          	mov    %eax,-0x14(%rsp)
  4018ee:	8b 44 24 e8          	mov    -0x18(%rsp),%eax
  4018f2:	69 c0 c1 49 00 00    	imul   $0x49c1,%eax,%eax
  4018f8:	89 44 24 e8          	mov    %eax,-0x18(%rsp)
  4018fc:	8b 44 24 f4          	mov    -0xc(%rsp),%eax
  401900:	69 c0 64 d8 00 00    	imul   $0xd864,%eax,%eax
  401906:	89 44 24 f4          	mov    %eax,-0xc(%rsp)
  40190a:	8b 44 24 d8          	mov    -0x28(%rsp),%eax
  40190e:	69 c0 12 ca 00 00    	imul   $0xca12,%eax,%eax
  401914:	89 44 24 d8          	mov    %eax,-0x28(%rsp)
  401918:	8b 44 24 e4          	mov    -0x1c(%rsp),%eax
  40191c:	69 c0 c1 fd 00 00    	imul   $0xfdc1,%eax,%eax
  401922:	89 44 24 e4          	mov    %eax,-0x1c(%rsp)
  401926:	8b 44 24 e0          	mov    -0x20(%rsp),%eax
  40192a:	69 c0 9e b3 00 00    	imul   $0xb39e,%eax,%eax
  401930:	89 44 24 e0          	mov    %eax,-0x20(%rsp)
  401934:	8b 44 24 f0          	mov    -0x10(%rsp),%eax
  401938:	69 c0 ce af 00 00    	imul   $0xafce,%eax,%eax
  40193e:	89 44 24 f0          	mov    %eax,-0x10(%rsp)
  401942:	8b 44 24 d0          	mov    -0x30(%rsp),%eax
  401946:	69 c0 e4 99 00 00    	imul   $0x99e4,%eax,%eax
  40194c:	89 44 24 d0          	mov    %eax,-0x30(%rsp)
  401950:	8b 44 24 d8          	mov    -0x28(%rsp),%eax
  401954:	69 c0 ba 07 00 00    	imul   $0x7ba,%eax,%eax
  40195a:	89 44 24 d8          	mov    %eax,-0x28(%rsp)
  40195e:	8b 44 24 f4          	mov    -0xc(%rsp),%eax
  401962:	69 c0 a7 6a 00 00    	imul   $0x6aa7,%eax,%eax
  401968:	89 44 24 f4          	mov    %eax,-0xc(%rsp)
  40196c:	8b 44 24 e0          	mov    -0x20(%rsp),%eax
  401970:	69 c0 ae 75 00 00    	imul   $0x75ae,%eax,%eax
  401976:	89 44 24 e0          	mov    %eax,-0x20(%rsp)
  40197a:	8b 44 24 e8          	mov    -0x18(%rsp),%eax
  40197e:	69 c0 ad 00 00 00    	imul   $0xad,%eax,%eax
  401984:	89 44 24 e8          	mov    %eax,-0x18(%rsp)
  401988:	8b 44 24 ec          	mov    -0x14(%rsp),%eax
  40198c:	69 c0 63 ba 00 00    	imul   $0xba63,%eax,%eax
  401992:	89 44 24 ec          	mov    %eax,-0x14(%rsp)
  401996:	8b 44 24 ec          	mov    -0x14(%rsp),%eax
  40199a:	69 c0 47 98 00 00    	imul   $0x9847,%eax,%eax
  4019a0:	89 44 24 ec          	mov    %eax,-0x14(%rsp)
  4019a4:	8b 44 24 e0          	mov    -0x20(%rsp),%eax
  4019a8:	69 c0 1e 87 00 00    	imul   $0x871e,%eax,%eax
  4019ae:	89 44 24 e0          	mov    %eax,-0x20(%rsp)
  4019b2:	8b 44 24 d4          	mov    -0x2c(%rsp),%eax
  4019b6:	69 c0 f9 d3 00 00    	imul   $0xd3f9,%eax,%eax
  4019bc:	89 44 24 d4          	mov    %eax,-0x2c(%rsp)
  4019c0:	8b 44 24 e0          	mov    -0x20(%rsp),%eax
  4019c4:	69 c0 bb 15 00 00    	imul   $0x15bb,%eax,%eax
  4019ca:	89 44 24 e0          	mov    %eax,-0x20(%rsp)
  4019ce:	8b 44 24 d8          	mov    -0x28(%rsp),%eax
  4019d2:	69 c0 13 8a 00 00    	imul   $0x8a13,%eax,%eax
  4019d8:	89 44 24 d8          	mov    %eax,-0x28(%rsp)
  4019dc:	8b 44 24 e4          	mov    -0x1c(%rsp),%eax
  4019e0:	69 c0 5b f4 00 00    	imul   $0xf45b,%eax,%eax
  4019e6:	89 44 24 e4          	mov    %eax,-0x1c(%rsp)
  4019ea:	8b 44 24 e8          	mov    -0x18(%rsp),%eax
  4019ee:	69 c0 1e 11 00 00    	imul   $0x111e,%eax,%eax
  4019f4:	89 44 24 e8          	mov    %eax,-0x18(%rsp)
  4019f8:	8b 44 24 dc          	mov    -0x24(%rsp),%eax
  4019fc:	69 c0 9d da 00 00    	imul   $0xda9d,%eax,%eax
  401a02:	89 44 24 dc          	mov    %eax,-0x24(%rsp)
  401a06:	8b 44 24 d4          	mov    -0x2c(%rsp),%eax
  401a0a:	69 c0 80 40 00 00    	imul   $0x4080,%eax,%eax
  401a10:	89 44 24 d4          	mov    %eax,-0x2c(%rsp)
  401a14:	8b 44 24 dc          	mov    -0x24(%rsp),%eax
  401a18:	69 c0 09 ce 00 00    	imul   $0xce09,%eax,%eax
  401a1e:	89 44 24 dc          	mov    %eax,-0x24(%rsp)
  401a22:	8b 44 24 e4          	mov    -0x1c(%rsp),%eax
  401a26:	69 c0 8d 65 00 00    	imul   $0x658d,%eax,%eax
  401a2c:	89 44 24 e4          	mov    %eax,-0x1c(%rsp)
  401a30:	8b 44 24 d4          	mov    -0x2c(%rsp),%eax
  401a34:	69 c0 53 b0 00 00    	imul   $0xb053,%eax,%eax
  401a3a:	89 44 24 d4          	mov    %eax,-0x2c(%rsp)
  401a3e:	8b 44 24 d4          	mov    -0x2c(%rsp),%eax
  401a42:	69 c0 1d e7 00 00    	imul   $0xe71d,%eax,%eax
  401a48:	89 44 24 d4          	mov    %eax,-0x2c(%rsp)
  401a4c:	8b 44 24 e0          	mov    -0x20(%rsp),%eax
  401a50:	69 c0 27 04 00 00    	imul   $0x427,%eax,%eax
  401a56:	89 44 24 e0          	mov    %eax,-0x20(%rsp)
  401a5a:	8b 44 24 e8          	mov    -0x18(%rsp),%eax
  401a5e:	69 c0 73 5e 00 00    	imul   $0x5e73,%eax,%eax
  401a64:	89 44 24 e8          	mov    %eax,-0x18(%rsp)
  401a68:	8b 44 24 e8          	mov    -0x18(%rsp),%eax
  401a6c:	69 c0 37 c8 00 00    	imul   $0xc837,%eax,%eax
  401a72:	89 44 24 e8          	mov    %eax,-0x18(%rsp)
  401a76:	8b 44 24 dc          	mov    -0x24(%rsp),%eax
  401a7a:	69 c0 64 b9 00 00    	imul   $0xb964,%eax,%eax
  401a80:	89 44 24 dc          	mov    %eax,-0x24(%rsp)
  401a84:	8b 44 24 ec          	mov    -0x14(%rsp),%eax
  401a88:	69 c0 d0 b7 00 00    	imul   $0xb7d0,%eax,%eax
  401a8e:	89 44 24 ec          	mov    %eax,-0x14(%rsp)
  401a92:	8b 44 24 e0          	mov    -0x20(%rsp),%eax
  401a96:	69 c0 60 ff 00 00    	imul   $0xff60,%eax,%eax
  401a9c:	89 44 24 e0          	mov    %eax,-0x20(%rsp)
  401aa0:	8b 44 24 dc          	mov    -0x24(%rsp),%eax
  401aa4:	69 c0 17 ab 00 00    	imul   $0xab17,%eax,%eax
  401aaa:	89 44 24 dc          	mov    %eax,-0x24(%rsp)
  401aae:	8b 44 24 f4          	mov    -0xc(%rsp),%eax
  401ab2:	69 c0 ac bb 00 00    	imul   $0xbbac,%eax,%eax
  401ab8:	89 44 24 f4          	mov    %eax,-0xc(%rsp)
  401abc:	8b 44 24 e0          	mov    -0x20(%rsp),%eax
  401ac0:	69 c0 99 dd 00 00    	imul   $0xdd99,%eax,%eax
  401ac6:	89 44 24 e0          	mov    %eax,-0x20(%rsp)
  401aca:	8b 44 24 e0          	mov    -0x20(%rsp),%eax
  401ace:	69 c0 8f 91 00 00    	imul   $0x918f,%eax,%eax
  401ad4:	89 44 24 e0          	mov    %eax,-0x20(%rsp)
  401ad8:	8b 44 24 e8          	mov    -0x18(%rsp),%eax
  401adc:	69 c0 87 91 00 00    	imul   $0x9187,%eax,%eax
  401ae2:	89 44 24 e8          	mov    %eax,-0x18(%rsp)
  401ae6:	8b 44 24 d0          	mov    -0x30(%rsp),%eax
  401aea:	69 c0 a1 42 00 00    	imul   $0x42a1,%eax,%eax
  401af0:	89 44 24 d0          	mov    %eax,-0x30(%rsp)
  401af4:	8b 44 24 f0          	mov    -0x10(%rsp),%eax
  401af8:	69 c0 75 ac 00 00    	imul   $0xac75,%eax,%eax
  401afe:	89 44 24 f0          	mov    %eax,-0x10(%rsp)
  401b02:	8b 44 24 e8          	mov    -0x18(%rsp),%eax
  401b06:	69 c0 54 35 00 00    	imul   $0x3554,%eax,%eax
  401b0c:	89 44 24 e8          	mov    %eax,-0x18(%rsp)
  401b10:	8b 44 24 dc          	mov    -0x24(%rsp),%eax
  401b14:	69 c0 63 78 00 00    	imul   $0x7863,%eax,%eax
  401b1a:	89 44 24 dc          	mov    %eax,-0x24(%rsp)
  401b1e:	8b 44 24 e8          	mov    -0x18(%rsp),%eax
  401b22:	69 c0 c9 82 00 00    	imul   $0x82c9,%eax,%eax
  401b28:	89 44 24 e8          	mov    %eax,-0x18(%rsp)
  401b2c:	8b 44 24 f0          	mov    -0x10(%rsp),%eax
  401b30:	69 c0 3b 04 00 00    	imul   $0x43b,%eax,%eax
  401b36:	89 44 24 f0          	mov    %eax,-0x10(%rsp)
  401b3a:	8b 44 24 d8          	mov    -0x28(%rsp),%eax
  401b3e:	69 c0 15 3b 00 00    	imul   $0x3b15,%eax,%eax
  401b44:	89 44 24 d8          	mov    %eax,-0x28(%rsp)
  401b48:	8b 44 24 f4          	mov    -0xc(%rsp),%eax
  401b4c:	69 c0 f6 d7 00 00    	imul   $0xd7f6,%eax,%eax
  401b52:	89 44 24 f4          	mov    %eax,-0xc(%rsp)
  401b56:	8b 44 24 ec          	mov    -0x14(%rsp),%eax
  401b5a:	69 c0 c8 1b 00 00    	imul   $0x1bc8,%eax,%eax
  401b60:	89 44 24 ec          	mov    %eax,-0x14(%rsp)
  401b64:	8b 44 24 d8          	mov    -0x28(%rsp),%eax
  401b68:	69 c0 d6 81 00 00    	imul   $0x81d6,%eax,%eax
  401b6e:	89 44 24 d8          	mov    %eax,-0x28(%rsp)
  401b72:	8b 44 24 d4          	mov    -0x2c(%rsp),%eax
  401b76:	69 c0 53 5d 00 00    	imul   $0x5d53,%eax,%eax
  401b7c:	89 44 24 d4          	mov    %eax,-0x2c(%rsp)
  401b80:	8b 44 24 f4          	mov    -0xc(%rsp),%eax
  401b84:	69 c0 9c a4 00 00    	imul   $0xa49c,%eax,%eax
  401b8a:	89 44 24 f4          	mov    %eax,-0xc(%rsp)
  401b8e:	8b 44 24 d4          	mov    -0x2c(%rsp),%eax
  401b92:	69 c0 60 cc 00 00    	imul   $0xcc60,%eax,%eax
  401b98:	89 44 24 d4          	mov    %eax,-0x2c(%rsp)
  401b9c:	8b 44 24 f0          	mov    -0x10(%rsp),%eax
  401ba0:	69 c0 c9 e5 00 00    	imul   $0xe5c9,%eax,%eax
  401ba6:	89 44 24 f0          	mov    %eax,-0x10(%rsp)
  401baa:	8b 44 24 d4          	mov    -0x2c(%rsp),%eax
  401bae:	69 c0 6b 3a 00 00    	imul   $0x3a6b,%eax,%eax
  401bb4:	89 44 24 d4          	mov    %eax,-0x2c(%rsp)
  401bb8:	8b 44 24 d0          	mov    -0x30(%rsp),%eax
  401bbc:	8d 14 40             	lea    (%rax,%rax,2),%edx
  401bbf:	89 d0                	mov    %edx,%eax
  401bc1:	c1 e0 0c             	shl    $0xc,%eax
  401bc4:	89 44 24 d0          	mov    %eax,-0x30(%rsp)
  401bc8:	8b 44 24 e4          	mov    -0x1c(%rsp),%eax
  401bcc:	69 c0 e1 d6 00 00    	imul   $0xd6e1,%eax,%eax
  401bd2:	89 44 24 e4          	mov    %eax,-0x1c(%rsp)
  401bd6:	8b 44 24 d4          	mov    -0x2c(%rsp),%eax
  401bda:	69 c0 3a 25 00 00    	imul   $0x253a,%eax,%eax
  401be0:	89 44 24 d4          	mov    %eax,-0x2c(%rsp)
  401be4:	8b 44 24 d0          	mov    -0x30(%rsp),%eax
  401be8:	69 c0 3d 39 00 00    	imul   $0x393d,%eax,%eax
  401bee:	89 44 24 d0          	mov    %eax,-0x30(%rsp)
  401bf2:	8b 44 24 d8          	mov    -0x28(%rsp),%eax
  401bf6:	69 c0 a6 28 00 00    	imul   $0x28a6,%eax,%eax
  401bfc:	89 44 24 d8          	mov    %eax,-0x28(%rsp)
  401c00:	8b 44 24 e4          	mov    -0x1c(%rsp),%eax
  401c04:	69 c0 28 1a 00 00    	imul   $0x1a28,%eax,%eax
  401c0a:	89 44 24 e4          	mov    %eax,-0x1c(%rsp)
  401c0e:	8b 44 24 f4          	mov    -0xc(%rsp),%eax
  401c12:	69 c0 42 9d 00 00    	imul   $0x9d42,%eax,%eax
  401c18:	89 44 24 f4          	mov    %eax,-0xc(%rsp)
  401c1c:	8b 44 24 f0          	mov    -0x10(%rsp),%eax
  401c20:	69 c0 54 f9 00 00    	imul   $0xf954,%eax,%eax
  401c26:	89 44 24 f0          	mov    %eax,-0x10(%rsp)
  401c2a:	8b 44 24 f0          	mov    -0x10(%rsp),%eax
  401c2e:	69 c0 b6 49 00 00    	imul   $0x49b6,%eax,%eax
  401c34:	89 44 24 f0          	mov    %eax,-0x10(%rsp)
  401c38:	8b 44 24 f0          	mov    -0x10(%rsp),%eax
  401c3c:	69 c0 ff 04 00 00    	imul   $0x4ff,%eax,%eax
  401c42:	89 44 24 f0          	mov    %eax,-0x10(%rsp)
  401c46:	ba 00 00 00 00       	mov    $0x0,%edx
  401c4b:	b8 00 00 00 00       	mov    $0x0,%eax
  401c50:	83 fa 09             	cmp    $0x9,%edx
  401c53:	77 0d                	ja     401c62 <scramble+0x597>
  401c55:	89 d1                	mov    %edx,%ecx
  401c57:	8b 4c 8c d0          	mov    -0x30(%rsp,%rcx,4),%ecx
  401c5b:	01 c8                	add    %ecx,%eax
  401c5d:	83 c2 01             	add    $0x1,%edx
  401c60:	eb ee                	jmp    401c50 <scramble+0x585>
  401c62:	c3                   	retq   

0000000000401c63 <getbuf>:
  401c63:	48 83 ec 38          	sub    $0x38,%rsp
  401c67:	48 89 e7             	mov    %rsp,%rdi
  401c6a:	e8 65 03 00 00       	callq  401fd4 <Gets>
  401c6f:	b8 01 00 00 00       	mov    $0x1,%eax
  401c74:	48 83 c4 38          	add    $0x38,%rsp
  401c78:	c3                   	retq   

0000000000401c79 <touch1>:
  401c79:	48 83 ec 08          	sub    $0x8,%rsp
  401c7d:	c7 05 79 58 00 00 01 	movl   $0x1,0x5879(%rip)        # 407500 <vlevel>
  401c84:	00 00 00 
  401c87:	48 8d 3d 82 26 00 00 	lea    0x2682(%rip),%rdi        # 404310 <_IO_stdin_used+0x310>
  401c8e:	e8 ed f3 ff ff       	callq  401080 <puts@plt>
  401c93:	bf 01 00 00 00       	mov    $0x1,%edi
  401c98:	e8 31 04 00 00       	callq  4020ce <validate>
  401c9d:	bf 00 00 00 00       	mov    $0x0,%edi
  401ca2:	e8 49 f5 ff ff       	callq  4011f0 <exit@plt>

0000000000401ca7 <touch2>:
  401ca7:	48 83 ec 08          	sub    $0x8,%rsp
  401cab:	89 fe                	mov    %edi,%esi
  401cad:	c7 05 49 58 00 00 02 	movl   $0x2,0x5849(%rip)        # 407500 <vlevel>
  401cb4:	00 00 00 
  401cb7:	39 3d 4b 58 00 00    	cmp    %edi,0x584b(%rip)        # 407508 <cookie>
  401cbd:	74 25                	je     401ce4 <touch2+0x3d>
  401cbf:	48 8d 3d 9a 26 00 00 	lea    0x269a(%rip),%rdi        # 404360 <_IO_stdin_used+0x360>
  401cc6:	b8 00 00 00 00       	mov    $0x0,%eax
  401ccb:	e8 e0 f3 ff ff       	callq  4010b0 <printf@plt>
  401cd0:	bf 02 00 00 00       	mov    $0x2,%edi
  401cd5:	e8 b2 04 00 00       	callq  40218c <fail>
  401cda:	bf 00 00 00 00       	mov    $0x0,%edi
  401cdf:	e8 0c f5 ff ff       	callq  4011f0 <exit@plt>
  401ce4:	48 8d 3d 4d 26 00 00 	lea    0x264d(%rip),%rdi        # 404338 <_IO_stdin_used+0x338>
  401ceb:	b8 00 00 00 00       	mov    $0x0,%eax
  401cf0:	e8 bb f3 ff ff       	callq  4010b0 <printf@plt>
  401cf5:	bf 02 00 00 00       	mov    $0x2,%edi
  401cfa:	e8 cf 03 00 00       	callq  4020ce <validate>
  401cff:	eb d9                	jmp    401cda <touch2+0x33>

0000000000401d01 <hexmatch>:
  401d01:	41 54                	push   %r12
  401d03:	55                   	push   %rbp
  401d04:	53                   	push   %rbx
  401d05:	48 83 ec 70          	sub    $0x70,%rsp
  401d09:	89 fd                	mov    %edi,%ebp
  401d0b:	48 89 f3             	mov    %rsi,%rbx
  401d0e:	e8 4d f4 ff ff       	callq  401160 <random@plt>
  401d13:	48 89 c1             	mov    %rax,%rcx
  401d16:	48 ba 0b d7 a3 70 3d 	movabs $0xa3d70a3d70a3d70b,%rdx
  401d1d:	0a d7 a3 
  401d20:	48 f7 ea             	imul   %rdx
  401d23:	48 01 ca             	add    %rcx,%rdx
  401d26:	48 c1 fa 06          	sar    $0x6,%rdx
  401d2a:	48 89 c8             	mov    %rcx,%rax
  401d2d:	48 c1 f8 3f          	sar    $0x3f,%rax
  401d31:	48 29 c2             	sub    %rax,%rdx
  401d34:	48 8d 04 92          	lea    (%rdx,%rdx,4),%rax
  401d38:	48 8d 14 80          	lea    (%rax,%rax,4),%rdx
  401d3c:	48 8d 04 95 00 00 00 	lea    0x0(,%rdx,4),%rax
  401d43:	00 
  401d44:	48 29 c1             	sub    %rax,%rcx
  401d47:	4c 8d 24 0c          	lea    (%rsp,%rcx,1),%r12
  401d4b:	89 ea                	mov    %ebp,%edx
  401d4d:	48 8d 35 d9 25 00 00 	lea    0x25d9(%rip),%rsi        # 40432d <_IO_stdin_used+0x32d>
  401d54:	4c 89 e7             	mov    %r12,%rdi
  401d57:	b8 00 00 00 00       	mov    $0x0,%eax
  401d5c:	e8 7f f4 ff ff       	callq  4011e0 <sprintf@plt>
  401d61:	ba 09 00 00 00       	mov    $0x9,%edx
  401d66:	4c 89 e6             	mov    %r12,%rsi
  401d69:	48 89 df             	mov    %rbx,%rdi
  401d6c:	e8 ef f2 ff ff       	callq  401060 <strncmp@plt>
  401d71:	85 c0                	test   %eax,%eax
  401d73:	0f 94 c0             	sete   %al
  401d76:	0f b6 c0             	movzbl %al,%eax
  401d79:	48 83 c4 70          	add    $0x70,%rsp
  401d7d:	5b                   	pop    %rbx
  401d7e:	5d                   	pop    %rbp
  401d7f:	41 5c                	pop    %r12
  401d81:	c3                   	retq   

0000000000401d82 <touch3>:
  401d82:	53                   	push   %rbx
  401d83:	48 89 fb             	mov    %rdi,%rbx
  401d86:	c7 05 70 57 00 00 03 	movl   $0x3,0x5770(%rip)        # 407500 <vlevel>
  401d8d:	00 00 00 
  401d90:	48 89 fe             	mov    %rdi,%rsi
  401d93:	8b 3d 6f 57 00 00    	mov    0x576f(%rip),%edi        # 407508 <cookie>
  401d99:	e8 63 ff ff ff       	callq  401d01 <hexmatch>
  401d9e:	85 c0                	test   %eax,%eax
  401da0:	74 28                	je     401dca <touch3+0x48>
  401da2:	48 89 de             	mov    %rbx,%rsi
  401da5:	48 8d 3d dc 25 00 00 	lea    0x25dc(%rip),%rdi        # 404388 <_IO_stdin_used+0x388>
  401dac:	b8 00 00 00 00       	mov    $0x0,%eax
  401db1:	e8 fa f2 ff ff       	callq  4010b0 <printf@plt>
  401db6:	bf 03 00 00 00       	mov    $0x3,%edi
  401dbb:	e8 0e 03 00 00       	callq  4020ce <validate>
  401dc0:	bf 00 00 00 00       	mov    $0x0,%edi
  401dc5:	e8 26 f4 ff ff       	callq  4011f0 <exit@plt>
  401dca:	48 89 de             	mov    %rbx,%rsi
  401dcd:	48 8d 3d dc 25 00 00 	lea    0x25dc(%rip),%rdi        # 4043b0 <_IO_stdin_used+0x3b0>
  401dd4:	b8 00 00 00 00       	mov    $0x0,%eax
  401dd9:	e8 d2 f2 ff ff       	callq  4010b0 <printf@plt>
  401dde:	bf 03 00 00 00       	mov    $0x3,%edi
  401de3:	e8 a4 03 00 00       	callq  40218c <fail>
  401de8:	eb d6                	jmp    401dc0 <touch3+0x3e>

0000000000401dea <test>:
  401dea:	48 83 ec 08          	sub    $0x8,%rsp
  401dee:	b8 00 00 00 00       	mov    $0x0,%eax
  401df3:	e8 6b fe ff ff       	callq  401c63 <getbuf>
  401df8:	89 c6                	mov    %eax,%esi
  401dfa:	48 8d 3d d7 25 00 00 	lea    0x25d7(%rip),%rdi        # 4043d8 <_IO_stdin_used+0x3d8>
  401e01:	b8 00 00 00 00       	mov    $0x0,%eax
  401e06:	e8 a5 f2 ff ff       	callq  4010b0 <printf@plt>
  401e0b:	48 83 c4 08          	add    $0x8,%rsp
  401e0f:	c3                   	retq   

0000000000401e10 <start_farm>:
  401e10:	b8 01 00 00 00       	mov    $0x1,%eax
  401e15:	c3                   	retq   

0000000000401e16 <setval_364>:
  401e16:	c7 07 48 c9 c7 c3    	movl   $0xc3c7c948,(%rdi)
  401e1c:	c3                   	retq   

0000000000401e1d <getval_210>:
  401e1d:	b8 cf 48 89 c7       	mov    $0xc78948cf,%eax
  401e22:	c3                   	retq   

0000000000401e23 <getval_267>:
  401e23:	b8 39 58 90 c3       	mov    $0xc3905839,%eax
  401e28:	c3                   	retq   

0000000000401e29 <getval_446>:
  401e29:	b8 48 89 c7 90       	mov    $0x90c78948,%eax
  401e2e:	c3                   	retq   

0000000000401e2f <getval_490>:
  401e2f:	b8 48 90 90 c3       	mov    $0xc3909048,%eax
  401e34:	c3                   	retq   

0000000000401e35 <addval_204>:
  401e35:	8d 87 48 89 c7 91    	lea    -0x6e3876b8(%rdi),%eax
  401e3b:	c3                   	retq   

0000000000401e3c <getval_325>:
  401e3c:	b8 58 90 90 c3       	mov    $0xc3909058,%eax
  401e41:	c3                   	retq   

0000000000401e42 <setval_256>:
  401e42:	c7 07 99 60 50 90    	movl   $0x90506099,(%rdi)
  401e48:	c3                   	retq   

0000000000401e49 <mid_farm>:
  401e49:	b8 01 00 00 00       	mov    $0x1,%eax
  401e4e:	c3                   	retq   

0000000000401e4f <add_xy>:
  401e4f:	48 8d 04 37          	lea    (%rdi,%rsi,1),%rax
  401e53:	c3                   	retq   

0000000000401e54 <addval_275>:
  401e54:	8d 87 48 89 e0 92    	lea    -0x6d1f76b8(%rdi),%eax
  401e5a:	c3                   	retq   

0000000000401e5b <setval_302>:
  401e5b:	c7 07 48 89 e0 91    	movl   $0x91e08948,(%rdi)
  401e61:	c3                   	retq   

0000000000401e62 <addval_153>:
  401e62:	8d 87 89 c1 18 c0    	lea    -0x3fe73e77(%rdi),%eax
  401e68:	c3                   	retq   

0000000000401e69 <addval_193>:
  401e69:	8d 87 48 89 e0 c2    	lea    -0x3d1f76b8(%rdi),%eax
  401e6f:	c3                   	retq   

0000000000401e70 <addval_171>:
  401e70:	8d 87 89 d6 c7 23    	lea    0x23c7d689(%rdi),%eax
  401e76:	c3                   	retq   

0000000000401e77 <addval_196>:
  401e77:	8d 87 89 ca 08 c0    	lea    -0x3ff73577(%rdi),%eax
  401e7d:	c3                   	retq   

0000000000401e7e <setval_100>:
  401e7e:	c7 07 89 d6 84 db    	movl   $0xdb84d689,(%rdi)
  401e84:	c3                   	retq   

0000000000401e85 <addval_467>:
  401e85:	8d 87 89 c1 78 db    	lea    -0x24873e77(%rdi),%eax
  401e8b:	c3                   	retq   

0000000000401e8c <setval_306>:
  401e8c:	c7 07 89 d6 c4 c0    	movl   $0xc0c4d689,(%rdi)
  401e92:	c3                   	retq   

0000000000401e93 <getval_375>:
  401e93:	b8 89 c1 90 90       	mov    $0x9090c189,%eax
  401e98:	c3                   	retq   

0000000000401e99 <setval_276>:
  401e99:	c7 07 89 c1 91 c3    	movl   $0xc391c189,(%rdi)
  401e9f:	c3                   	retq   

0000000000401ea0 <getval_266>:
  401ea0:	b8 48 89 e0 c7       	mov    $0xc7e08948,%eax
  401ea5:	c3                   	retq   

0000000000401ea6 <setval_169>:
  401ea6:	c7 07 48 89 e0 c3    	movl   $0xc3e08948,(%rdi)
  401eac:	c3                   	retq   

0000000000401ead <getval_395>:
  401ead:	b8 48 89 e0 c2       	mov    $0xc2e08948,%eax
  401eb2:	c3                   	retq   

0000000000401eb3 <setval_450>:
  401eb3:	c7 07 99 c1 38 d2    	movl   $0xd238c199,(%rdi)
  401eb9:	c3                   	retq   

0000000000401eba <addval_471>:
  401eba:	8d 87 9b 89 d6 91    	lea    -0x6e297665(%rdi),%eax
  401ec0:	c3                   	retq   

0000000000401ec1 <addval_201>:
  401ec1:	8d 87 58 89 e0 c3    	lea    -0x3c1f76a8(%rdi),%eax
  401ec7:	c3                   	retq   

0000000000401ec8 <getval_317>:
  401ec8:	b8 fe 89 c1 c1       	mov    $0xc1c189fe,%eax
  401ecd:	c3                   	retq   

0000000000401ece <setval_243>:
  401ece:	c7 07 1a fe 88 ca    	movl   $0xca88fe1a,(%rdi)
  401ed4:	c3                   	retq   

0000000000401ed5 <getval_145>:
  401ed5:	b8 a9 d6 08 d2       	mov    $0xd208d6a9,%eax
  401eda:	c3                   	retq   

0000000000401edb <addval_473>:
  401edb:	8d 87 2b 89 c1 90    	lea    -0x6f3e76d5(%rdi),%eax
  401ee1:	c3                   	retq   

0000000000401ee2 <addval_323>:
  401ee2:	8d 87 99 ca 08 d2    	lea    -0x2df73567(%rdi),%eax
  401ee8:	c3                   	retq   

0000000000401ee9 <setval_458>:
  401ee9:	c7 07 89 d6 38 d2    	movl   $0xd238d689,(%rdi)
  401eef:	c3                   	retq   

0000000000401ef0 <getval_265>:
  401ef0:	b8 62 14 99 c1       	mov    $0xc1991462,%eax
  401ef5:	c3                   	retq   

0000000000401ef6 <getval_202>:
  401ef6:	b8 99 ca 90 c3       	mov    $0xc390ca99,%eax
  401efb:	c3                   	retq   

0000000000401efc <setval_119>:
  401efc:	c7 07 89 ca 92 90    	movl   $0x9092ca89,(%rdi)
  401f02:	c3                   	retq   

0000000000401f03 <setval_347>:
  401f03:	c7 07 89 ca 91 c3    	movl   $0xc391ca89,(%rdi)
  401f09:	c3                   	retq   

0000000000401f0a <setval_281>:
  401f0a:	c7 07 d6 81 ca c3    	movl   $0xc3ca81d6,(%rdi)
  401f10:	c3                   	retq   

0000000000401f11 <getval_255>:
  401f11:	b8 c9 d6 84 c0       	mov    $0xc084d6c9,%eax
  401f16:	c3                   	retq   

0000000000401f17 <setval_442>:
  401f17:	c7 07 48 89 e0 c3    	movl   $0xc3e08948,(%rdi)
  401f1d:	c3                   	retq   

0000000000401f1e <addval_357>:
  401f1e:	8d 87 69 89 ca 90    	lea    -0x6f357697(%rdi),%eax
  401f24:	c3                   	retq   

0000000000401f25 <addval_159>:
  401f25:	8d 87 c9 d6 90 c3    	lea    -0x3c6f2937(%rdi),%eax
  401f2b:	c3                   	retq   

0000000000401f2c <end_farm>:
  401f2c:	b8 01 00 00 00       	mov    $0x1,%eax
  401f31:	c3                   	retq   

0000000000401f32 <save_char>:
  401f32:	8b 05 ec 61 00 00    	mov    0x61ec(%rip),%eax        # 408124 <gets_cnt>
  401f38:	3d ff 03 00 00       	cmp    $0x3ff,%eax
  401f3d:	7f 4a                	jg     401f89 <save_char+0x57>
  401f3f:	89 f9                	mov    %edi,%ecx
  401f41:	c0 e9 04             	shr    $0x4,%cl
  401f44:	8d 14 40             	lea    (%rax,%rax,2),%edx
  401f47:	4c 8d 05 02 27 00 00 	lea    0x2702(%rip),%r8        # 404650 <trans_char>
  401f4e:	83 e1 0f             	and    $0xf,%ecx
  401f51:	45 0f b6 0c 08       	movzbl (%r8,%rcx,1),%r9d
  401f56:	48 8d 0d c3 55 00 00 	lea    0x55c3(%rip),%rcx        # 407520 <gets_buf>
  401f5d:	48 63 f2             	movslq %edx,%rsi
  401f60:	44 88 0c 31          	mov    %r9b,(%rcx,%rsi,1)
  401f64:	8d 72 01             	lea    0x1(%rdx),%esi
  401f67:	83 e7 0f             	and    $0xf,%edi
  401f6a:	41 0f b6 3c 38       	movzbl (%r8,%rdi,1),%edi
  401f6f:	48 63 f6             	movslq %esi,%rsi
  401f72:	40 88 3c 31          	mov    %dil,(%rcx,%rsi,1)
  401f76:	83 c2 02             	add    $0x2,%edx
  401f79:	48 63 d2             	movslq %edx,%rdx
  401f7c:	c6 04 11 20          	movb   $0x20,(%rcx,%rdx,1)
  401f80:	83 c0 01             	add    $0x1,%eax
  401f83:	89 05 9b 61 00 00    	mov    %eax,0x619b(%rip)        # 408124 <gets_cnt>
  401f89:	c3                   	retq   

0000000000401f8a <save_term>:
  401f8a:	8b 05 94 61 00 00    	mov    0x6194(%rip),%eax        # 408124 <gets_cnt>
  401f90:	8d 04 40             	lea    (%rax,%rax,2),%eax
  401f93:	48 98                	cltq   
  401f95:	48 8d 15 84 55 00 00 	lea    0x5584(%rip),%rdx        # 407520 <gets_buf>
  401f9c:	c6 04 02 00          	movb   $0x0,(%rdx,%rax,1)
  401fa0:	c3                   	retq   

0000000000401fa1 <check_fail>:
  401fa1:	48 83 ec 08          	sub    $0x8,%rsp
  401fa5:	0f be 35 7c 61 00 00 	movsbl 0x617c(%rip),%esi        # 408128 <target_prefix>
  401fac:	48 8d 0d 6d 55 00 00 	lea    0x556d(%rip),%rcx        # 407520 <gets_buf>
  401fb3:	8b 15 43 55 00 00    	mov    0x5543(%rip),%edx        # 4074fc <check_level>
  401fb9:	48 8d 3d 3b 24 00 00 	lea    0x243b(%rip),%rdi        # 4043fb <_IO_stdin_used+0x3fb>
  401fc0:	b8 00 00 00 00       	mov    $0x0,%eax
  401fc5:	e8 e6 f0 ff ff       	callq  4010b0 <printf@plt>
  401fca:	bf 01 00 00 00       	mov    $0x1,%edi
  401fcf:	e8 1c f2 ff ff       	callq  4011f0 <exit@plt>

0000000000401fd4 <Gets>:
  401fd4:	41 54                	push   %r12
  401fd6:	55                   	push   %rbp
  401fd7:	53                   	push   %rbx
  401fd8:	49 89 fc             	mov    %rdi,%r12
  401fdb:	c7 05 3f 61 00 00 00 	movl   $0x0,0x613f(%rip)        # 408124 <gets_cnt>
  401fe2:	00 00 00 
  401fe5:	48 89 fb             	mov    %rdi,%rbx
  401fe8:	48 8b 3d 01 55 00 00 	mov    0x5501(%rip),%rdi        # 4074f0 <infile>
  401fef:	e8 1c f2 ff ff       	callq  401210 <getc@plt>
  401ff4:	83 f8 ff             	cmp    $0xffffffff,%eax
  401ff7:	74 18                	je     402011 <Gets+0x3d>
  401ff9:	83 f8 0a             	cmp    $0xa,%eax
  401ffc:	74 13                	je     402011 <Gets+0x3d>
  401ffe:	48 8d 6b 01          	lea    0x1(%rbx),%rbp
  402002:	88 03                	mov    %al,(%rbx)
  402004:	0f b6 f8             	movzbl %al,%edi
  402007:	e8 26 ff ff ff       	callq  401f32 <save_char>
  40200c:	48 89 eb             	mov    %rbp,%rbx
  40200f:	eb d7                	jmp    401fe8 <Gets+0x14>
  402011:	c6 03 00             	movb   $0x0,(%rbx)
  402014:	b8 00 00 00 00       	mov    $0x0,%eax
  402019:	e8 6c ff ff ff       	callq  401f8a <save_term>
  40201e:	4c 89 e0             	mov    %r12,%rax
  402021:	5b                   	pop    %rbx
  402022:	5d                   	pop    %rbp
  402023:	41 5c                	pop    %r12
  402025:	c3                   	retq   

0000000000402026 <notify_server>:
  402026:	83 3d df 54 00 00 00 	cmpl   $0x0,0x54df(%rip)        # 40750c <is_checker>
  40202d:	0f 85 9a 00 00 00    	jne    4020cd <notify_server+0xa7>
  402033:	53                   	push   %rbx
  402034:	48 81 ec 00 20 00 00 	sub    $0x2000,%rsp
  40203b:	81 3d df 60 00 00 9c 	cmpl   $0x1f9c,0x60df(%rip)        # 408124 <gets_cnt>
  402042:	1f 00 00 
  402045:	7f 5a                	jg     4020a1 <notify_server+0x7b>
  402047:	44 0f be 0d d9 60 00 	movsbl 0x60d9(%rip),%r9d        # 408128 <target_prefix>
  40204e:	00 
  40204f:	83 3d a2 54 00 00 00 	cmpl   $0x0,0x54a2(%rip)        # 4074f8 <notify>
  402056:	74 64                	je     4020bc <notify_server+0x96>
  402058:	44 8b 05 a5 54 00 00 	mov    0x54a5(%rip),%r8d        # 407504 <authkey>
  40205f:	85 ff                	test   %edi,%edi
  402061:	74 61                	je     4020c4 <notify_server+0x9e>
  402063:	48 8d 1d ac 23 00 00 	lea    0x23ac(%rip),%rbx        # 404416 <_IO_stdin_used+0x416>
  40206a:	48 89 e7             	mov    %rsp,%rdi
  40206d:	48 8d 05 ac 54 00 00 	lea    0x54ac(%rip),%rax        # 407520 <gets_buf>
  402074:	50                   	push   %rax
  402075:	56                   	push   %rsi
  402076:	48 89 d9             	mov    %rbx,%rcx
  402079:	8b 15 b1 50 00 00    	mov    0x50b1(%rip),%edx        # 407130 <target_id>
  40207f:	48 8d 35 95 23 00 00 	lea    0x2395(%rip),%rsi        # 40441b <_IO_stdin_used+0x41b>
  402086:	b8 00 00 00 00       	mov    $0x0,%eax
  40208b:	e8 50 f1 ff ff       	callq  4011e0 <sprintf@plt>
  402090:	48 89 df             	mov    %rbx,%rdi
  402093:	e8 e8 ef ff ff       	callq  401080 <puts@plt>
  402098:	48 81 c4 10 20 00 00 	add    $0x2010,%rsp
  40209f:	5b                   	pop    %rbx
  4020a0:	c3                   	retq   
  4020a1:	48 8d 3d 38 24 00 00 	lea    0x2438(%rip),%rdi        # 4044e0 <_IO_stdin_used+0x4e0>
  4020a8:	b8 00 00 00 00       	mov    $0x0,%eax
  4020ad:	e8 fe ef ff ff       	callq  4010b0 <printf@plt>
  4020b2:	bf 01 00 00 00       	mov    $0x1,%edi
  4020b7:	e8 34 f1 ff ff       	callq  4011f0 <exit@plt>
  4020bc:	41 b8 ff ff ff ff    	mov    $0xffffffff,%r8d
  4020c2:	eb 9b                	jmp    40205f <notify_server+0x39>
  4020c4:	48 8d 1d 46 23 00 00 	lea    0x2346(%rip),%rbx        # 404411 <_IO_stdin_used+0x411>
  4020cb:	eb 9d                	jmp    40206a <notify_server+0x44>
  4020cd:	c3                   	retq   

00000000004020ce <validate>:
  4020ce:	53                   	push   %rbx
  4020cf:	89 fb                	mov    %edi,%ebx
  4020d1:	83 3d 34 54 00 00 00 	cmpl   $0x0,0x5434(%rip)        # 40750c <is_checker>
  4020d8:	74 68                	je     402142 <validate+0x74>
  4020da:	39 3d 20 54 00 00    	cmp    %edi,0x5420(%rip)        # 407500 <vlevel>
  4020e0:	75 2d                	jne    40210f <validate+0x41>
  4020e2:	8b 35 14 54 00 00    	mov    0x5414(%rip),%esi        # 4074fc <check_level>
  4020e8:	39 fe                	cmp    %edi,%esi
  4020ea:	75 39                	jne    402125 <validate+0x57>
  4020ec:	0f be 35 35 60 00 00 	movsbl 0x6035(%rip),%esi        # 408128 <target_prefix>
  4020f3:	48 8d 0d 26 54 00 00 	lea    0x5426(%rip),%rcx        # 407520 <gets_buf>
  4020fa:	89 fa                	mov    %edi,%edx
  4020fc:	48 8d 3d 52 23 00 00 	lea    0x2352(%rip),%rdi        # 404455 <_IO_stdin_used+0x455>
  402103:	b8 00 00 00 00       	mov    $0x0,%eax
  402108:	e8 a3 ef ff ff       	callq  4010b0 <printf@plt>
  40210d:	5b                   	pop    %rbx
  40210e:	c3                   	retq   
  40210f:	48 8d 3d 21 23 00 00 	lea    0x2321(%rip),%rdi        # 404437 <_IO_stdin_used+0x437>
  402116:	e8 65 ef ff ff       	callq  401080 <puts@plt>
  40211b:	b8 00 00 00 00       	mov    $0x0,%eax
  402120:	e8 7c fe ff ff       	callq  401fa1 <check_fail>
  402125:	89 fa                	mov    %edi,%edx
  402127:	48 8d 3d e2 23 00 00 	lea    0x23e2(%rip),%rdi        # 404510 <_IO_stdin_used+0x510>
  40212e:	b8 00 00 00 00       	mov    $0x0,%eax
  402133:	e8 78 ef ff ff       	callq  4010b0 <printf@plt>
  402138:	b8 00 00 00 00       	mov    $0x0,%eax
  40213d:	e8 5f fe ff ff       	callq  401fa1 <check_fail>
  402142:	39 3d b8 53 00 00    	cmp    %edi,0x53b8(%rip)        # 407500 <vlevel>
  402148:	74 1a                	je     402164 <validate+0x96>
  40214a:	48 8d 3d e6 22 00 00 	lea    0x22e6(%rip),%rdi        # 404437 <_IO_stdin_used+0x437>
  402151:	e8 2a ef ff ff       	callq  401080 <puts@plt>
  402156:	89 de                	mov    %ebx,%esi
  402158:	bf 00 00 00 00       	mov    $0x0,%edi
  40215d:	e8 c4 fe ff ff       	callq  402026 <notify_server>
  402162:	eb a9                	jmp    40210d <validate+0x3f>
  402164:	0f be 15 bd 5f 00 00 	movsbl 0x5fbd(%rip),%edx        # 408128 <target_prefix>
  40216b:	89 fe                	mov    %edi,%esi
  40216d:	48 8d 3d c4 23 00 00 	lea    0x23c4(%rip),%rdi        # 404538 <_IO_stdin_used+0x538>
  402174:	b8 00 00 00 00       	mov    $0x0,%eax
  402179:	e8 32 ef ff ff       	callq  4010b0 <printf@plt>
  40217e:	89 de                	mov    %ebx,%esi
  402180:	bf 01 00 00 00       	mov    $0x1,%edi
  402185:	e8 9c fe ff ff       	callq  402026 <notify_server>
  40218a:	eb 81                	jmp    40210d <validate+0x3f>

000000000040218c <fail>:
  40218c:	48 83 ec 08          	sub    $0x8,%rsp
  402190:	83 3d 75 53 00 00 00 	cmpl   $0x0,0x5375(%rip)        # 40750c <is_checker>
  402197:	75 11                	jne    4021aa <fail+0x1e>
  402199:	89 fe                	mov    %edi,%esi
  40219b:	bf 00 00 00 00       	mov    $0x0,%edi
  4021a0:	e8 81 fe ff ff       	callq  402026 <notify_server>
  4021a5:	48 83 c4 08          	add    $0x8,%rsp
  4021a9:	c3                   	retq   
  4021aa:	b8 00 00 00 00       	mov    $0x0,%eax
  4021af:	e8 ed fd ff ff       	callq  401fa1 <check_fail>

00000000004021b4 <bushandler>:
  4021b4:	48 83 ec 08          	sub    $0x8,%rsp
  4021b8:	83 3d 4d 53 00 00 00 	cmpl   $0x0,0x534d(%rip)        # 40750c <is_checker>
  4021bf:	74 16                	je     4021d7 <bushandler+0x23>
  4021c1:	48 8d 3d a2 22 00 00 	lea    0x22a2(%rip),%rdi        # 40446a <_IO_stdin_used+0x46a>
  4021c8:	e8 b3 ee ff ff       	callq  401080 <puts@plt>
  4021cd:	b8 00 00 00 00       	mov    $0x0,%eax
  4021d2:	e8 ca fd ff ff       	callq  401fa1 <check_fail>
  4021d7:	48 8d 3d 92 23 00 00 	lea    0x2392(%rip),%rdi        # 404570 <_IO_stdin_used+0x570>
  4021de:	e8 9d ee ff ff       	callq  401080 <puts@plt>
  4021e3:	48 8d 3d 8a 22 00 00 	lea    0x228a(%rip),%rdi        # 404474 <_IO_stdin_used+0x474>
  4021ea:	e8 91 ee ff ff       	callq  401080 <puts@plt>
  4021ef:	be 00 00 00 00       	mov    $0x0,%esi
  4021f4:	bf 00 00 00 00       	mov    $0x0,%edi
  4021f9:	e8 28 fe ff ff       	callq  402026 <notify_server>
  4021fe:	bf 01 00 00 00       	mov    $0x1,%edi
  402203:	e8 e8 ef ff ff       	callq  4011f0 <exit@plt>

0000000000402208 <seghandler>:
  402208:	48 83 ec 08          	sub    $0x8,%rsp
  40220c:	83 3d f9 52 00 00 00 	cmpl   $0x0,0x52f9(%rip)        # 40750c <is_checker>
  402213:	74 16                	je     40222b <seghandler+0x23>
  402215:	48 8d 3d 6e 22 00 00 	lea    0x226e(%rip),%rdi        # 40448a <_IO_stdin_used+0x48a>
  40221c:	e8 5f ee ff ff       	callq  401080 <puts@plt>
  402221:	b8 00 00 00 00       	mov    $0x0,%eax
  402226:	e8 76 fd ff ff       	callq  401fa1 <check_fail>
  40222b:	48 8d 3d 5e 23 00 00 	lea    0x235e(%rip),%rdi        # 404590 <_IO_stdin_used+0x590>
  402232:	e8 49 ee ff ff       	callq  401080 <puts@plt>
  402237:	48 8d 3d 36 22 00 00 	lea    0x2236(%rip),%rdi        # 404474 <_IO_stdin_used+0x474>
  40223e:	e8 3d ee ff ff       	callq  401080 <puts@plt>
  402243:	be 00 00 00 00       	mov    $0x0,%esi
  402248:	bf 00 00 00 00       	mov    $0x0,%edi
  40224d:	e8 d4 fd ff ff       	callq  402026 <notify_server>
  402252:	bf 01 00 00 00       	mov    $0x1,%edi
  402257:	e8 94 ef ff ff       	callq  4011f0 <exit@plt>

000000000040225c <illegalhandler>:
  40225c:	48 83 ec 08          	sub    $0x8,%rsp
  402260:	83 3d a5 52 00 00 00 	cmpl   $0x0,0x52a5(%rip)        # 40750c <is_checker>
  402267:	74 16                	je     40227f <illegalhandler+0x23>
  402269:	48 8d 3d 2d 22 00 00 	lea    0x222d(%rip),%rdi        # 40449d <_IO_stdin_used+0x49d>
  402270:	e8 0b ee ff ff       	callq  401080 <puts@plt>
  402275:	b8 00 00 00 00       	mov    $0x0,%eax
  40227a:	e8 22 fd ff ff       	callq  401fa1 <check_fail>
  40227f:	48 8d 3d 32 23 00 00 	lea    0x2332(%rip),%rdi        # 4045b8 <_IO_stdin_used+0x5b8>
  402286:	e8 f5 ed ff ff       	callq  401080 <puts@plt>
  40228b:	48 8d 3d e2 21 00 00 	lea    0x21e2(%rip),%rdi        # 404474 <_IO_stdin_used+0x474>
  402292:	e8 e9 ed ff ff       	callq  401080 <puts@plt>
  402297:	be 00 00 00 00       	mov    $0x0,%esi
  40229c:	bf 00 00 00 00       	mov    $0x0,%edi
  4022a1:	e8 80 fd ff ff       	callq  402026 <notify_server>
  4022a6:	bf 01 00 00 00       	mov    $0x1,%edi
  4022ab:	e8 40 ef ff ff       	callq  4011f0 <exit@plt>

00000000004022b0 <sigalrmhandler>:
  4022b0:	48 83 ec 08          	sub    $0x8,%rsp
  4022b4:	83 3d 51 52 00 00 00 	cmpl   $0x0,0x5251(%rip)        # 40750c <is_checker>
  4022bb:	74 16                	je     4022d3 <sigalrmhandler+0x23>
  4022bd:	48 8d 3d ed 21 00 00 	lea    0x21ed(%rip),%rdi        # 4044b1 <_IO_stdin_used+0x4b1>
  4022c4:	e8 b7 ed ff ff       	callq  401080 <puts@plt>
  4022c9:	b8 00 00 00 00       	mov    $0x0,%eax
  4022ce:	e8 ce fc ff ff       	callq  401fa1 <check_fail>
  4022d3:	be 05 00 00 00       	mov    $0x5,%esi
  4022d8:	48 8d 3d 09 23 00 00 	lea    0x2309(%rip),%rdi        # 4045e8 <_IO_stdin_used+0x5e8>
  4022df:	b8 00 00 00 00       	mov    $0x0,%eax
  4022e4:	e8 c7 ed ff ff       	callq  4010b0 <printf@plt>
  4022e9:	be 00 00 00 00       	mov    $0x0,%esi
  4022ee:	bf 00 00 00 00       	mov    $0x0,%edi
  4022f3:	e8 2e fd ff ff       	callq  402026 <notify_server>
  4022f8:	bf 01 00 00 00       	mov    $0x1,%edi
  4022fd:	e8 ee ee ff ff       	callq  4011f0 <exit@plt>

0000000000402302 <launch>:
  402302:	55                   	push   %rbp
  402303:	48 89 e5             	mov    %rsp,%rbp
  402306:	48 89 fa             	mov    %rdi,%rdx
  402309:	48 8d 47 17          	lea    0x17(%rdi),%rax
  40230d:	48 83 e0 f0          	and    $0xfffffffffffffff0,%rax
  402311:	48 29 c4             	sub    %rax,%rsp
  402314:	48 8d 7c 24 0f       	lea    0xf(%rsp),%rdi
  402319:	48 83 e7 f0          	and    $0xfffffffffffffff0,%rdi
  40231d:	be f4 00 00 00       	mov    $0xf4,%esi
  402322:	e8 99 ed ff ff       	callq  4010c0 <memset@plt>
  402327:	48 8b 05 72 51 00 00 	mov    0x5172(%rip),%rax        # 4074a0 <stdin@@GLIBC_2.2.5>
  40232e:	48 39 05 bb 51 00 00 	cmp    %rax,0x51bb(%rip)        # 4074f0 <infile>
  402335:	74 2b                	je     402362 <launch+0x60>
  402337:	c7 05 bf 51 00 00 00 	movl   $0x0,0x51bf(%rip)        # 407500 <vlevel>
  40233e:	00 00 00 
  402341:	b8 00 00 00 00       	mov    $0x0,%eax
  402346:	e8 9f fa ff ff       	callq  401dea <test>
  40234b:	83 3d ba 51 00 00 00 	cmpl   $0x0,0x51ba(%rip)        # 40750c <is_checker>
  402352:	75 21                	jne    402375 <launch+0x73>
  402354:	48 8d 3d 76 21 00 00 	lea    0x2176(%rip),%rdi        # 4044d1 <_IO_stdin_used+0x4d1>
  40235b:	e8 20 ed ff ff       	callq  401080 <puts@plt>
  402360:	c9                   	leaveq 
  402361:	c3                   	retq   
  402362:	48 8d 3d 50 21 00 00 	lea    0x2150(%rip),%rdi        # 4044b9 <_IO_stdin_used+0x4b9>
  402369:	b8 00 00 00 00       	mov    $0x0,%eax
  40236e:	e8 3d ed ff ff       	callq  4010b0 <printf@plt>
  402373:	eb c2                	jmp    402337 <launch+0x35>
  402375:	48 8d 3d 4a 21 00 00 	lea    0x214a(%rip),%rdi        # 4044c6 <_IO_stdin_used+0x4c6>
  40237c:	e8 ff ec ff ff       	callq  401080 <puts@plt>
  402381:	b8 00 00 00 00       	mov    $0x0,%eax
  402386:	e8 16 fc ff ff       	callq  401fa1 <check_fail>

000000000040238b <stable_launch>:
  40238b:	53                   	push   %rbx
  40238c:	48 89 3d 55 51 00 00 	mov    %rdi,0x5155(%rip)        # 4074e8 <global_offset>
  402393:	41 b9 00 00 00 00    	mov    $0x0,%r9d
  402399:	41 b8 00 00 00 00    	mov    $0x0,%r8d
  40239f:	b9 32 01 00 00       	mov    $0x132,%ecx
  4023a4:	ba 07 00 00 00       	mov    $0x7,%edx
  4023a9:	be 00 00 10 00       	mov    $0x100000,%esi
  4023ae:	bf 00 60 58 55       	mov    $0x55586000,%edi
  4023b3:	e8 e8 ec ff ff       	callq  4010a0 <mmap@plt>
  4023b8:	48 89 c3             	mov    %rax,%rbx
  4023bb:	48 3d 00 60 58 55    	cmp    $0x55586000,%rax
  4023c1:	75 43                	jne    402406 <stable_launch+0x7b>
  4023c3:	48 8d 90 f8 ff 0f 00 	lea    0xffff8(%rax),%rdx
  4023ca:	48 89 15 5f 5d 00 00 	mov    %rdx,0x5d5f(%rip)        # 408130 <stack_top>
  4023d1:	48 89 e0             	mov    %rsp,%rax
  4023d4:	48 89 d4             	mov    %rdx,%rsp
  4023d7:	48 89 c2             	mov    %rax,%rdx
  4023da:	48 89 15 ff 50 00 00 	mov    %rdx,0x50ff(%rip)        # 4074e0 <global_save_stack>
  4023e1:	48 8b 3d 00 51 00 00 	mov    0x5100(%rip),%rdi        # 4074e8 <global_offset>
  4023e8:	e8 15 ff ff ff       	callq  402302 <launch>
  4023ed:	48 8b 05 ec 50 00 00 	mov    0x50ec(%rip),%rax        # 4074e0 <global_save_stack>
  4023f4:	48 89 c4             	mov    %rax,%rsp
  4023f7:	be 00 00 10 00       	mov    $0x100000,%esi
  4023fc:	48 89 df             	mov    %rbx,%rdi
  4023ff:	e8 7c ed ff ff       	callq  401180 <munmap@plt>
  402404:	5b                   	pop    %rbx
  402405:	c3                   	retq   
  402406:	be 00 00 10 00       	mov    $0x100000,%esi
  40240b:	48 89 c7             	mov    %rax,%rdi
  40240e:	e8 6d ed ff ff       	callq  401180 <munmap@plt>
  402413:	ba 00 60 58 55       	mov    $0x55586000,%edx
  402418:	48 8d 35 01 22 00 00 	lea    0x2201(%rip),%rsi        # 404620 <_IO_stdin_used+0x620>
  40241f:	48 8b 3d 9a 50 00 00 	mov    0x509a(%rip),%rdi        # 4074c0 <stderr@@GLIBC_2.2.5>
  402426:	b8 00 00 00 00       	mov    $0x0,%eax
  40242b:	e8 f0 ec ff ff       	callq  401120 <fprintf@plt>
  402430:	bf 01 00 00 00       	mov    $0x1,%edi
  402435:	e8 b6 ed ff ff       	callq  4011f0 <exit@plt>

000000000040243a <rio_readinitb>:
  40243a:	89 37                	mov    %esi,(%rdi)
  40243c:	c7 47 04 00 00 00 00 	movl   $0x0,0x4(%rdi)
  402443:	48 8d 47 10          	lea    0x10(%rdi),%rax
  402447:	48 89 47 08          	mov    %rax,0x8(%rdi)
  40244b:	c3                   	retq   

000000000040244c <sigalrm_handler>:
  40244c:	48 83 ec 08          	sub    $0x8,%rsp
  402450:	ba 00 00 00 00       	mov    $0x0,%edx
  402455:	48 8d 35 04 22 00 00 	lea    0x2204(%rip),%rsi        # 404660 <trans_char+0x10>
  40245c:	48 8b 3d 5d 50 00 00 	mov    0x505d(%rip),%rdi        # 4074c0 <stderr@@GLIBC_2.2.5>
  402463:	b8 00 00 00 00       	mov    $0x0,%eax
  402468:	e8 b3 ec ff ff       	callq  401120 <fprintf@plt>
  40246d:	bf 01 00 00 00       	mov    $0x1,%edi
  402472:	e8 79 ed ff ff       	callq  4011f0 <exit@plt>

0000000000402477 <urlencode>:
  402477:	41 54                	push   %r12
  402479:	55                   	push   %rbp
  40247a:	53                   	push   %rbx
  40247b:	48 83 ec 10          	sub    $0x10,%rsp
  40247f:	48 89 fb             	mov    %rdi,%rbx
  402482:	48 89 f5             	mov    %rsi,%rbp
  402485:	48 c7 c1 ff ff ff ff 	mov    $0xffffffffffffffff,%rcx
  40248c:	b8 00 00 00 00       	mov    $0x0,%eax
  402491:	f2 ae                	repnz scas %es:(%rdi),%al
  402493:	48 89 ce             	mov    %rcx,%rsi
  402496:	48 f7 d6             	not    %rsi
  402499:	8d 46 ff             	lea    -0x1(%rsi),%eax
  40249c:	eb 0e                	jmp    4024ac <urlencode+0x35>
  40249e:	88 55 00             	mov    %dl,0x0(%rbp)
  4024a1:	48 8d 6d 01          	lea    0x1(%rbp),%rbp
  4024a5:	48 83 c3 01          	add    $0x1,%rbx
  4024a9:	44 89 e0             	mov    %r12d,%eax
  4024ac:	44 8d 60 ff          	lea    -0x1(%rax),%r12d
  4024b0:	85 c0                	test   %eax,%eax
  4024b2:	0f 84 95 00 00 00    	je     40254d <urlencode+0xd6>
  4024b8:	0f b6 13             	movzbl (%rbx),%edx
  4024bb:	80 fa 2a             	cmp    $0x2a,%dl
  4024be:	0f 94 c1             	sete   %cl
  4024c1:	80 fa 2d             	cmp    $0x2d,%dl
  4024c4:	0f 94 c0             	sete   %al
  4024c7:	08 c1                	or     %al,%cl
  4024c9:	75 d3                	jne    40249e <urlencode+0x27>
  4024cb:	80 fa 2e             	cmp    $0x2e,%dl
  4024ce:	74 ce                	je     40249e <urlencode+0x27>
  4024d0:	80 fa 5f             	cmp    $0x5f,%dl
  4024d3:	74 c9                	je     40249e <urlencode+0x27>
  4024d5:	8d 42 d0             	lea    -0x30(%rdx),%eax
  4024d8:	3c 09                	cmp    $0x9,%al
  4024da:	76 c2                	jbe    40249e <urlencode+0x27>
  4024dc:	8d 42 bf             	lea    -0x41(%rdx),%eax
  4024df:	3c 19                	cmp    $0x19,%al
  4024e1:	76 bb                	jbe    40249e <urlencode+0x27>
  4024e3:	8d 42 9f             	lea    -0x61(%rdx),%eax
  4024e6:	3c 19                	cmp    $0x19,%al
  4024e8:	76 b4                	jbe    40249e <urlencode+0x27>
  4024ea:	80 fa 20             	cmp    $0x20,%dl
  4024ed:	74 4c                	je     40253b <urlencode+0xc4>
  4024ef:	8d 42 e0             	lea    -0x20(%rdx),%eax
  4024f2:	3c 5f                	cmp    $0x5f,%al
  4024f4:	0f 96 c1             	setbe  %cl
  4024f7:	80 fa 09             	cmp    $0x9,%dl
  4024fa:	0f 94 c0             	sete   %al
  4024fd:	08 c1                	or     %al,%cl
  4024ff:	74 47                	je     402548 <urlencode+0xd1>
  402501:	0f b6 d2             	movzbl %dl,%edx
  402504:	48 8d 7c 24 08       	lea    0x8(%rsp),%rdi
  402509:	48 8d 35 e8 21 00 00 	lea    0x21e8(%rip),%rsi        # 4046f8 <trans_char+0xa8>
  402510:	b8 00 00 00 00       	mov    $0x0,%eax
  402515:	e8 c6 ec ff ff       	callq  4011e0 <sprintf@plt>
  40251a:	0f b6 44 24 08       	movzbl 0x8(%rsp),%eax
  40251f:	88 45 00             	mov    %al,0x0(%rbp)
  402522:	0f b6 44 24 09       	movzbl 0x9(%rsp),%eax
  402527:	88 45 01             	mov    %al,0x1(%rbp)
  40252a:	0f b6 44 24 0a       	movzbl 0xa(%rsp),%eax
  40252f:	88 45 02             	mov    %al,0x2(%rbp)
  402532:	48 8d 6d 03          	lea    0x3(%rbp),%rbp
  402536:	e9 6a ff ff ff       	jmpq   4024a5 <urlencode+0x2e>
  40253b:	c6 45 00 2b          	movb   $0x2b,0x0(%rbp)
  40253f:	48 8d 6d 01          	lea    0x1(%rbp),%rbp
  402543:	e9 5d ff ff ff       	jmpq   4024a5 <urlencode+0x2e>
  402548:	b8 ff ff ff ff       	mov    $0xffffffff,%eax
  40254d:	48 83 c4 10          	add    $0x10,%rsp
  402551:	5b                   	pop    %rbx
  402552:	5d                   	pop    %rbp
  402553:	41 5c                	pop    %r12
  402555:	c3                   	retq   

0000000000402556 <rio_writen>:
  402556:	41 55                	push   %r13
  402558:	41 54                	push   %r12
  40255a:	55                   	push   %rbp
  40255b:	53                   	push   %rbx
  40255c:	48 83 ec 08          	sub    $0x8,%rsp
  402560:	41 89 fc             	mov    %edi,%r12d
  402563:	48 89 f5             	mov    %rsi,%rbp
  402566:	49 89 d5             	mov    %rdx,%r13
  402569:	48 89 d3             	mov    %rdx,%rbx
  40256c:	eb 06                	jmp    402574 <rio_writen+0x1e>
  40256e:	48 29 c3             	sub    %rax,%rbx
  402571:	48 01 c5             	add    %rax,%rbp
  402574:	48 85 db             	test   %rbx,%rbx
  402577:	74 24                	je     40259d <rio_writen+0x47>
  402579:	48 89 da             	mov    %rbx,%rdx
  40257c:	48 89 ee             	mov    %rbp,%rsi
  40257f:	44 89 e7             	mov    %r12d,%edi
  402582:	e8 09 eb ff ff       	callq  401090 <write@plt>
  402587:	48 85 c0             	test   %rax,%rax
  40258a:	7f e2                	jg     40256e <rio_writen+0x18>
  40258c:	e8 af ea ff ff       	callq  401040 <__errno_location@plt>
  402591:	83 38 04             	cmpl   $0x4,(%rax)
  402594:	75 15                	jne    4025ab <rio_writen+0x55>
  402596:	b8 00 00 00 00       	mov    $0x0,%eax
  40259b:	eb d1                	jmp    40256e <rio_writen+0x18>
  40259d:	4c 89 e8             	mov    %r13,%rax
  4025a0:	48 83 c4 08          	add    $0x8,%rsp
  4025a4:	5b                   	pop    %rbx
  4025a5:	5d                   	pop    %rbp
  4025a6:	41 5c                	pop    %r12
  4025a8:	41 5d                	pop    %r13
  4025aa:	c3                   	retq   
  4025ab:	48 c7 c0 ff ff ff ff 	mov    $0xffffffffffffffff,%rax
  4025b2:	eb ec                	jmp    4025a0 <rio_writen+0x4a>

00000000004025b4 <rio_read>:
  4025b4:	41 55                	push   %r13
  4025b6:	41 54                	push   %r12
  4025b8:	55                   	push   %rbp
  4025b9:	53                   	push   %rbx
  4025ba:	48 83 ec 08          	sub    $0x8,%rsp
  4025be:	48 89 fb             	mov    %rdi,%rbx
  4025c1:	49 89 f5             	mov    %rsi,%r13
  4025c4:	49 89 d4             	mov    %rdx,%r12
  4025c7:	eb 0a                	jmp    4025d3 <rio_read+0x1f>
  4025c9:	e8 72 ea ff ff       	callq  401040 <__errno_location@plt>
  4025ce:	83 38 04             	cmpl   $0x4,(%rax)
  4025d1:	75 5a                	jne    40262d <rio_read+0x79>
  4025d3:	8b 6b 04             	mov    0x4(%rbx),%ebp
  4025d6:	85 ed                	test   %ebp,%ebp
  4025d8:	7f 22                	jg     4025fc <rio_read+0x48>
  4025da:	48 8d 6b 10          	lea    0x10(%rbx),%rbp
  4025de:	ba 00 20 00 00       	mov    $0x2000,%edx
  4025e3:	48 89 ee             	mov    %rbp,%rsi
  4025e6:	8b 3b                	mov    (%rbx),%edi
  4025e8:	e8 03 eb ff ff       	callq  4010f0 <read@plt>
  4025ed:	89 43 04             	mov    %eax,0x4(%rbx)
  4025f0:	85 c0                	test   %eax,%eax
  4025f2:	78 d5                	js     4025c9 <rio_read+0x15>
  4025f4:	74 40                	je     402636 <rio_read+0x82>
  4025f6:	48 89 6b 08          	mov    %rbp,0x8(%rbx)
  4025fa:	eb d7                	jmp    4025d3 <rio_read+0x1f>
  4025fc:	89 e8                	mov    %ebp,%eax
  4025fe:	4c 39 e0             	cmp    %r12,%rax
  402601:	72 03                	jb     402606 <rio_read+0x52>
  402603:	44 89 e5             	mov    %r12d,%ebp
  402606:	4c 63 e5             	movslq %ebp,%r12
  402609:	48 8b 73 08          	mov    0x8(%rbx),%rsi
  40260d:	4c 89 e2             	mov    %r12,%rdx
  402610:	4c 89 ef             	mov    %r13,%rdi
  402613:	e8 28 eb ff ff       	callq  401140 <memcpy@plt>
  402618:	4c 01 63 08          	add    %r12,0x8(%rbx)
  40261c:	29 6b 04             	sub    %ebp,0x4(%rbx)
  40261f:	4c 89 e0             	mov    %r12,%rax
  402622:	48 83 c4 08          	add    $0x8,%rsp
  402626:	5b                   	pop    %rbx
  402627:	5d                   	pop    %rbp
  402628:	41 5c                	pop    %r12
  40262a:	41 5d                	pop    %r13
  40262c:	c3                   	retq   
  40262d:	48 c7 c0 ff ff ff ff 	mov    $0xffffffffffffffff,%rax
  402634:	eb ec                	jmp    402622 <rio_read+0x6e>
  402636:	b8 00 00 00 00       	mov    $0x0,%eax
  40263b:	eb e5                	jmp    402622 <rio_read+0x6e>

000000000040263d <rio_readlineb>:
  40263d:	41 55                	push   %r13
  40263f:	41 54                	push   %r12
  402641:	55                   	push   %rbp
  402642:	53                   	push   %rbx
  402643:	48 83 ec 18          	sub    $0x18,%rsp
  402647:	49 89 fd             	mov    %rdi,%r13
  40264a:	48 89 f5             	mov    %rsi,%rbp
  40264d:	49 89 d4             	mov    %rdx,%r12
  402650:	bb 01 00 00 00       	mov    $0x1,%ebx
  402655:	4c 39 e3             	cmp    %r12,%rbx
  402658:	73 44                	jae    40269e <rio_readlineb+0x61>
  40265a:	48 8d 74 24 0f       	lea    0xf(%rsp),%rsi
  40265f:	ba 01 00 00 00       	mov    $0x1,%edx
  402664:	4c 89 ef             	mov    %r13,%rdi
  402667:	e8 48 ff ff ff       	callq  4025b4 <rio_read>
  40266c:	83 f8 01             	cmp    $0x1,%eax
  40266f:	75 19                	jne    40268a <rio_readlineb+0x4d>
  402671:	48 8d 55 01          	lea    0x1(%rbp),%rdx
  402675:	0f b6 44 24 0f       	movzbl 0xf(%rsp),%eax
  40267a:	88 45 00             	mov    %al,0x0(%rbp)
  40267d:	3c 0a                	cmp    $0xa,%al
  40267f:	74 1a                	je     40269b <rio_readlineb+0x5e>
  402681:	48 83 c3 01          	add    $0x1,%rbx
  402685:	48 89 d5             	mov    %rdx,%rbp
  402688:	eb cb                	jmp    402655 <rio_readlineb+0x18>
  40268a:	85 c0                	test   %eax,%eax
  40268c:	75 22                	jne    4026b0 <rio_readlineb+0x73>
  40268e:	48 83 fb 01          	cmp    $0x1,%rbx
  402692:	75 0a                	jne    40269e <rio_readlineb+0x61>
  402694:	b8 00 00 00 00       	mov    $0x0,%eax
  402699:	eb 0a                	jmp    4026a5 <rio_readlineb+0x68>
  40269b:	48 89 d5             	mov    %rdx,%rbp
  40269e:	c6 45 00 00          	movb   $0x0,0x0(%rbp)
  4026a2:	48 89 d8             	mov    %rbx,%rax
  4026a5:	48 83 c4 18          	add    $0x18,%rsp
  4026a9:	5b                   	pop    %rbx
  4026aa:	5d                   	pop    %rbp
  4026ab:	41 5c                	pop    %r12
  4026ad:	41 5d                	pop    %r13
  4026af:	c3                   	retq   
  4026b0:	48 c7 c0 ff ff ff ff 	mov    $0xffffffffffffffff,%rax
  4026b7:	eb ec                	jmp    4026a5 <rio_readlineb+0x68>

00000000004026b9 <submitr>:
  4026b9:	41 57                	push   %r15
  4026bb:	41 56                	push   %r14
  4026bd:	41 55                	push   %r13
  4026bf:	41 54                	push   %r12
  4026c1:	55                   	push   %rbp
  4026c2:	53                   	push   %rbx
  4026c3:	48 81 ec 58 a0 00 00 	sub    $0xa058,%rsp
  4026ca:	49 89 fd             	mov    %rdi,%r13
  4026cd:	89 74 24 14          	mov    %esi,0x14(%rsp)
  4026d1:	49 89 d7             	mov    %rdx,%r15
  4026d4:	48 89 4c 24 08       	mov    %rcx,0x8(%rsp)
  4026d9:	4c 89 44 24 18       	mov    %r8,0x18(%rsp)
  4026de:	4d 89 ce             	mov    %r9,%r14
  4026e1:	48 8b ac 24 90 a0 00 	mov    0xa090(%rsp),%rbp
  4026e8:	00 
  4026e9:	c7 84 24 2c 20 00 00 	movl   $0x0,0x202c(%rsp)
  4026f0:	00 00 00 00 
  4026f4:	ba 00 00 00 00       	mov    $0x0,%edx
  4026f9:	be 01 00 00 00       	mov    $0x1,%esi
  4026fe:	bf 02 00 00 00       	mov    $0x2,%edi
  402703:	e8 18 eb ff ff       	callq  401220 <socket@plt>
  402708:	85 c0                	test   %eax,%eax
  40270a:	0f 88 9a 02 00 00    	js     4029aa <submitr+0x2f1>
  402710:	89 c3                	mov    %eax,%ebx
  402712:	4c 89 ef             	mov    %r13,%rdi
  402715:	e8 f6 e9 ff ff       	callq  401110 <gethostbyname@plt>
  40271a:	48 85 c0             	test   %rax,%rax
  40271d:	0f 84 d3 02 00 00    	je     4029f6 <submitr+0x33d>
  402723:	4c 8d a4 24 40 a0 00 	lea    0xa040(%rsp),%r12
  40272a:	00 
  40272b:	48 c7 84 24 42 a0 00 	movq   $0x0,0xa042(%rsp)
  402732:	00 00 00 00 00 
  402737:	c7 84 24 4a a0 00 00 	movl   $0x0,0xa04a(%rsp)
  40273e:	00 00 00 00 
  402742:	66 c7 84 24 4e a0 00 	movw   $0x0,0xa04e(%rsp)
  402749:	00 00 00 
  40274c:	66 c7 84 24 40 a0 00 	movw   $0x2,0xa040(%rsp)
  402753:	00 02 00 
  402756:	48 8b 48 18          	mov    0x18(%rax),%rcx
  40275a:	48 63 50 14          	movslq 0x14(%rax),%rdx
  40275e:	48 8d bc 24 44 a0 00 	lea    0xa044(%rsp),%rdi
  402765:	00 
  402766:	48 8b 31             	mov    (%rcx),%rsi
  402769:	e8 22 ea ff ff       	callq  401190 <memmove@plt>
  40276e:	0f b7 44 24 14       	movzwl 0x14(%rsp),%eax
  402773:	66 c1 c0 08          	rol    $0x8,%ax
  402777:	66 89 84 24 42 a0 00 	mov    %ax,0xa042(%rsp)
  40277e:	00 
  40277f:	ba 10 00 00 00       	mov    $0x10,%edx
  402784:	4c 89 e6             	mov    %r12,%rsi
  402787:	89 df                	mov    %ebx,%edi
  402789:	e8 72 ea ff ff       	callq  401200 <connect@plt>
  40278e:	85 c0                	test   %eax,%eax
  402790:	0f 88 c8 02 00 00    	js     402a5e <submitr+0x3a5>
  402796:	48 c7 c6 ff ff ff ff 	mov    $0xffffffffffffffff,%rsi
  40279d:	b8 00 00 00 00       	mov    $0x0,%eax
  4027a2:	48 89 f1             	mov    %rsi,%rcx
  4027a5:	4c 89 f7             	mov    %r14,%rdi
  4027a8:	f2 ae                	repnz scas %es:(%rdi),%al
  4027aa:	48 89 ca             	mov    %rcx,%rdx
  4027ad:	48 f7 d2             	not    %rdx
  4027b0:	48 89 f1             	mov    %rsi,%rcx
  4027b3:	4c 89 ff             	mov    %r15,%rdi
  4027b6:	f2 ae                	repnz scas %es:(%rdi),%al
  4027b8:	48 f7 d1             	not    %rcx
  4027bb:	49 89 c8             	mov    %rcx,%r8
  4027be:	48 89 f1             	mov    %rsi,%rcx
  4027c1:	48 8b 7c 24 08       	mov    0x8(%rsp),%rdi
  4027c6:	f2 ae                	repnz scas %es:(%rdi),%al
  4027c8:	48 f7 d1             	not    %rcx
  4027cb:	4d 8d 44 08 fe       	lea    -0x2(%r8,%rcx,1),%r8
  4027d0:	48 89 f1             	mov    %rsi,%rcx
  4027d3:	48 8b 7c 24 18       	mov    0x18(%rsp),%rdi
  4027d8:	f2 ae                	repnz scas %es:(%rdi),%al
  4027da:	48 89 c8             	mov    %rcx,%rax
  4027dd:	48 f7 d0             	not    %rax
  4027e0:	49 8d 4c 00 ff       	lea    -0x1(%r8,%rax,1),%rcx
  4027e5:	48 8d 44 52 fd       	lea    -0x3(%rdx,%rdx,2),%rax
  4027ea:	48 8d 84 01 80 00 00 	lea    0x80(%rcx,%rax,1),%rax
  4027f1:	00 
  4027f2:	48 3d 00 20 00 00    	cmp    $0x2000,%rax
  4027f8:	0f 87 ba 02 00 00    	ja     402ab8 <submitr+0x3ff>
  4027fe:	48 8d b4 24 30 40 00 	lea    0x4030(%rsp),%rsi
  402805:	00 
  402806:	b9 00 04 00 00       	mov    $0x400,%ecx
  40280b:	b8 00 00 00 00       	mov    $0x0,%eax
  402810:	48 89 f7             	mov    %rsi,%rdi
  402813:	f3 48 ab             	rep stos %rax,%es:(%rdi)
  402816:	4c 89 f7             	mov    %r14,%rdi
  402819:	e8 59 fc ff ff       	callq  402477 <urlencode>
  40281e:	85 c0                	test   %eax,%eax
  402820:	0f 88 05 03 00 00    	js     402b2b <submitr+0x472>
  402826:	4c 8d a4 24 30 60 00 	lea    0x6030(%rsp),%r12
  40282d:	00 
  40282e:	4d 89 e9             	mov    %r13,%r9
  402831:	4c 8d 84 24 30 40 00 	lea    0x4030(%rsp),%r8
  402838:	00 
  402839:	4c 89 f9             	mov    %r15,%rcx
  40283c:	48 8b 54 24 08       	mov    0x8(%rsp),%rdx
  402841:	48 8d 35 40 1e 00 00 	lea    0x1e40(%rip),%rsi        # 404688 <trans_char+0x38>
  402848:	4c 89 e7             	mov    %r12,%rdi
  40284b:	b8 00 00 00 00       	mov    $0x0,%eax
  402850:	e8 8b e9 ff ff       	callq  4011e0 <sprintf@plt>
  402855:	48 c7 c1 ff ff ff ff 	mov    $0xffffffffffffffff,%rcx
  40285c:	b8 00 00 00 00       	mov    $0x0,%eax
  402861:	4c 89 e7             	mov    %r12,%rdi
  402864:	f2 ae                	repnz scas %es:(%rdi),%al
  402866:	48 89 ca             	mov    %rcx,%rdx
  402869:	48 f7 d2             	not    %rdx
  40286c:	48 8d 52 ff          	lea    -0x1(%rdx),%rdx
  402870:	4c 89 e6             	mov    %r12,%rsi
  402873:	89 df                	mov    %ebx,%edi
  402875:	e8 dc fc ff ff       	callq  402556 <rio_writen>
  40287a:	48 85 c0             	test   %rax,%rax
  40287d:	0f 88 33 03 00 00    	js     402bb6 <submitr+0x4fd>
  402883:	4c 8d a4 24 30 80 00 	lea    0x8030(%rsp),%r12
  40288a:	00 
  40288b:	89 de                	mov    %ebx,%esi
  40288d:	4c 89 e7             	mov    %r12,%rdi
  402890:	e8 a5 fb ff ff       	callq  40243a <rio_readinitb>
  402895:	48 8d b4 24 30 60 00 	lea    0x6030(%rsp),%rsi
  40289c:	00 
  40289d:	ba 00 20 00 00       	mov    $0x2000,%edx
  4028a2:	4c 89 e7             	mov    %r12,%rdi
  4028a5:	e8 93 fd ff ff       	callq  40263d <rio_readlineb>
  4028aa:	48 85 c0             	test   %rax,%rax
  4028ad:	0f 8e 72 03 00 00    	jle    402c25 <submitr+0x56c>
  4028b3:	48 8d 8c 24 2c 20 00 	lea    0x202c(%rsp),%rcx
  4028ba:	00 
  4028bb:	48 8d 94 24 30 20 00 	lea    0x2030(%rsp),%rdx
  4028c2:	00 
  4028c3:	48 8d bc 24 30 60 00 	lea    0x6030(%rsp),%rdi
  4028ca:	00 
  4028cb:	4c 8d 44 24 20       	lea    0x20(%rsp),%r8
  4028d0:	48 8d 35 28 1e 00 00 	lea    0x1e28(%rip),%rsi        # 4046ff <trans_char+0xaf>
  4028d7:	b8 00 00 00 00       	mov    $0x0,%eax
  4028dc:	e8 8f e8 ff ff       	callq  401170 <__isoc99_sscanf@plt>
  4028e1:	48 8d b4 24 30 60 00 	lea    0x6030(%rsp),%rsi
  4028e8:	00 
  4028e9:	b9 03 00 00 00       	mov    $0x3,%ecx
  4028ee:	48 8d 3d 21 1e 00 00 	lea    0x1e21(%rip),%rdi        # 404716 <trans_char+0xc6>
  4028f5:	f3 a6                	repz cmpsb %es:(%rdi),%ds:(%rsi)
  4028f7:	0f 97 c0             	seta   %al
  4028fa:	1c 00                	sbb    $0x0,%al
  4028fc:	84 c0                	test   %al,%al
  4028fe:	0f 84 9f 03 00 00    	je     402ca3 <submitr+0x5ea>
  402904:	48 8d b4 24 30 60 00 	lea    0x6030(%rsp),%rsi
  40290b:	00 
  40290c:	48 8d bc 24 30 80 00 	lea    0x8030(%rsp),%rdi
  402913:	00 
  402914:	ba 00 20 00 00       	mov    $0x2000,%edx
  402919:	e8 1f fd ff ff       	callq  40263d <rio_readlineb>
  40291e:	48 85 c0             	test   %rax,%rax
  402921:	7f be                	jg     4028e1 <submitr+0x228>
  402923:	48 b8 45 72 72 6f 72 	movabs $0x43203a726f727245,%rax
  40292a:	3a 20 43 
  40292d:	48 ba 6c 69 65 6e 74 	movabs $0x6e7520746e65696c,%rdx
  402934:	20 75 6e 
  402937:	48 89 45 00          	mov    %rax,0x0(%rbp)
  40293b:	48 89 55 08          	mov    %rdx,0x8(%rbp)
  40293f:	48 b8 61 62 6c 65 20 	movabs $0x206f7420656c6261,%rax
  402946:	74 6f 20 
  402949:	48 ba 72 65 61 64 20 	movabs $0x6165682064616572,%rdx
  402950:	68 65 61 
  402953:	48 89 45 10          	mov    %rax,0x10(%rbp)
  402957:	48 89 55 18          	mov    %rdx,0x18(%rbp)
  40295b:	48 b8 64 65 72 73 20 	movabs $0x6f72662073726564,%rax
  402962:	66 72 6f 
  402965:	48 ba 6d 20 74 68 65 	movabs $0x657220656874206d,%rdx
  40296c:	20 72 65 
  40296f:	48 89 45 20          	mov    %rax,0x20(%rbp)
  402973:	48 89 55 28          	mov    %rdx,0x28(%rbp)
  402977:	48 b8 73 75 6c 74 20 	movabs $0x72657320746c7573,%rax
  40297e:	73 65 72 
  402981:	48 89 45 30          	mov    %rax,0x30(%rbp)
  402985:	c7 45 38 76 65 72 00 	movl   $0x726576,0x38(%rbp)
  40298c:	89 df                	mov    %ebx,%edi
  40298e:	e8 4d e7 ff ff       	callq  4010e0 <close@plt>
  402993:	b8 ff ff ff ff       	mov    $0xffffffff,%eax
  402998:	48 81 c4 58 a0 00 00 	add    $0xa058,%rsp
  40299f:	5b                   	pop    %rbx
  4029a0:	5d                   	pop    %rbp
  4029a1:	41 5c                	pop    %r12
  4029a3:	41 5d                	pop    %r13
  4029a5:	41 5e                	pop    %r14
  4029a7:	41 5f                	pop    %r15
  4029a9:	c3                   	retq   
  4029aa:	48 b8 45 72 72 6f 72 	movabs $0x43203a726f727245,%rax
  4029b1:	3a 20 43 
  4029b4:	48 ba 6c 69 65 6e 74 	movabs $0x6e7520746e65696c,%rdx
  4029bb:	20 75 6e 
  4029be:	48 89 45 00          	mov    %rax,0x0(%rbp)
  4029c2:	48 89 55 08          	mov    %rdx,0x8(%rbp)
  4029c6:	48 b8 61 62 6c 65 20 	movabs $0x206f7420656c6261,%rax
  4029cd:	74 6f 20 
  4029d0:	48 ba 63 72 65 61 74 	movabs $0x7320657461657263,%rdx
  4029d7:	65 20 73 
  4029da:	48 89 45 10          	mov    %rax,0x10(%rbp)
  4029de:	48 89 55 18          	mov    %rdx,0x18(%rbp)
  4029e2:	c7 45 20 6f 63 6b 65 	movl   $0x656b636f,0x20(%rbp)
  4029e9:	66 c7 45 24 74 00    	movw   $0x74,0x24(%rbp)
  4029ef:	b8 ff ff ff ff       	mov    $0xffffffff,%eax
  4029f4:	eb a2                	jmp    402998 <submitr+0x2df>
  4029f6:	48 b8 45 72 72 6f 72 	movabs $0x44203a726f727245,%rax
  4029fd:	3a 20 44 
  402a00:	48 ba 4e 53 20 69 73 	movabs $0x6e7520736920534e,%rdx
  402a07:	20 75 6e 
  402a0a:	48 89 45 00          	mov    %rax,0x0(%rbp)
  402a0e:	48 89 55 08          	mov    %rdx,0x8(%rbp)
  402a12:	48 b8 61 62 6c 65 20 	movabs $0x206f7420656c6261,%rax
  402a19:	74 6f 20 
  402a1c:	48 ba 72 65 73 6f 6c 	movabs $0x2065766c6f736572,%rdx
  402a23:	76 65 20 
  402a26:	48 89 45 10          	mov    %rax,0x10(%rbp)
  402a2a:	48 89 55 18          	mov    %rdx,0x18(%rbp)
  402a2e:	48 b8 73 65 72 76 65 	movabs $0x6120726576726573,%rax
  402a35:	72 20 61 
  402a38:	48 89 45 20          	mov    %rax,0x20(%rbp)
  402a3c:	c7 45 28 64 64 72 65 	movl   $0x65726464,0x28(%rbp)
  402a43:	66 c7 45 2c 73 73    	movw   $0x7373,0x2c(%rbp)
  402a49:	c6 45 2e 00          	movb   $0x0,0x2e(%rbp)
  402a4d:	89 df                	mov    %ebx,%edi
  402a4f:	e8 8c e6 ff ff       	callq  4010e0 <close@plt>
  402a54:	b8 ff ff ff ff       	mov    $0xffffffff,%eax
  402a59:	e9 3a ff ff ff       	jmpq   402998 <submitr+0x2df>
  402a5e:	48 b8 45 72 72 6f 72 	movabs $0x55203a726f727245,%rax
  402a65:	3a 20 55 
  402a68:	48 ba 6e 61 62 6c 65 	movabs $0x6f7420656c62616e,%rdx
  402a6f:	20 74 6f 
  402a72:	48 89 45 00          	mov    %rax,0x0(%rbp)
  402a76:	48 89 55 08          	mov    %rdx,0x8(%rbp)
  402a7a:	48 b8 20 63 6f 6e 6e 	movabs $0x7463656e6e6f6320,%rax
  402a81:	65 63 74 
  402a84:	48 ba 20 74 6f 20 74 	movabs $0x20656874206f7420,%rdx
  402a8b:	68 65 20 
  402a8e:	48 89 45 10          	mov    %rax,0x10(%rbp)
  402a92:	48 89 55 18          	mov    %rdx,0x18(%rbp)
  402a96:	c7 45 20 73 65 72 76 	movl   $0x76726573,0x20(%rbp)
  402a9d:	66 c7 45 24 65 72    	movw   $0x7265,0x24(%rbp)
  402aa3:	c6 45 26 00          	movb   $0x0,0x26(%rbp)
  402aa7:	89 df                	mov    %ebx,%edi
  402aa9:	e8 32 e6 ff ff       	callq  4010e0 <close@plt>
  402aae:	b8 ff ff ff ff       	mov    $0xffffffff,%eax
  402ab3:	e9 e0 fe ff ff       	jmpq   402998 <submitr+0x2df>
  402ab8:	48 b8 45 72 72 6f 72 	movabs $0x52203a726f727245,%rax
  402abf:	3a 20 52 
  402ac2:	48 ba 65 73 75 6c 74 	movabs $0x747320746c757365,%rdx
  402ac9:	20 73 74 
  402acc:	48 89 45 00          	mov    %rax,0x0(%rbp)
  402ad0:	48 89 55 08          	mov    %rdx,0x8(%rbp)
  402ad4:	48 b8 72 69 6e 67 20 	movabs $0x6f6f7420676e6972,%rax
  402adb:	74 6f 6f 
  402ade:	48 ba 20 6c 61 72 67 	movabs $0x202e656772616c20,%rdx
  402ae5:	65 2e 20 
  402ae8:	48 89 45 10          	mov    %rax,0x10(%rbp)
  402aec:	48 89 55 18          	mov    %rdx,0x18(%rbp)
  402af0:	48 b8 49 6e 63 72 65 	movabs $0x6573616572636e49,%rax
  402af7:	61 73 65 
  402afa:	48 ba 20 53 55 42 4d 	movabs $0x5254494d42555320,%rdx
  402b01:	49 54 52 
  402b04:	48 89 45 20          	mov    %rax,0x20(%rbp)
  402b08:	48 89 55 28          	mov    %rdx,0x28(%rbp)
  402b0c:	48 b8 5f 4d 41 58 42 	movabs $0x46554258414d5f,%rax
  402b13:	55 46 00 
  402b16:	48 89 45 30          	mov    %rax,0x30(%rbp)
  402b1a:	89 df                	mov    %ebx,%edi
  402b1c:	e8 bf e5 ff ff       	callq  4010e0 <close@plt>
  402b21:	b8 ff ff ff ff       	mov    $0xffffffff,%eax
  402b26:	e9 6d fe ff ff       	jmpq   402998 <submitr+0x2df>
  402b2b:	48 b8 45 72 72 6f 72 	movabs $0x52203a726f727245,%rax
  402b32:	3a 20 52 
  402b35:	48 ba 65 73 75 6c 74 	movabs $0x747320746c757365,%rdx
  402b3c:	20 73 74 
  402b3f:	48 89 45 00          	mov    %rax,0x0(%rbp)
  402b43:	48 89 55 08          	mov    %rdx,0x8(%rbp)
  402b47:	48 b8 72 69 6e 67 20 	movabs $0x6e6f6320676e6972,%rax
  402b4e:	63 6f 6e 
  402b51:	48 ba 74 61 69 6e 73 	movabs $0x6e6120736e696174,%rdx
  402b58:	20 61 6e 
  402b5b:	48 89 45 10          	mov    %rax,0x10(%rbp)
  402b5f:	48 89 55 18          	mov    %rdx,0x18(%rbp)
  402b63:	48 b8 20 69 6c 6c 65 	movabs $0x6c6167656c6c6920,%rax
  402b6a:	67 61 6c 
  402b6d:	48 ba 20 6f 72 20 75 	movabs $0x72706e7520726f20,%rdx
  402b74:	6e 70 72 
  402b77:	48 89 45 20          	mov    %rax,0x20(%rbp)
  402b7b:	48 89 55 28          	mov    %rdx,0x28(%rbp)
  402b7f:	48 b8 69 6e 74 61 62 	movabs $0x20656c6261746e69,%rax
  402b86:	6c 65 20 
  402b89:	48 ba 63 68 61 72 61 	movabs $0x6574636172616863,%rdx
  402b90:	63 74 65 
  402b93:	48 89 45 30          	mov    %rax,0x30(%rbp)
  402b97:	48 89 55 38          	mov    %rdx,0x38(%rbp)
  402b9b:	66 c7 45 40 72 2e    	movw   $0x2e72,0x40(%rbp)
  402ba1:	c6 45 42 00          	movb   $0x0,0x42(%rbp)
  402ba5:	89 df                	mov    %ebx,%edi
  402ba7:	e8 34 e5 ff ff       	callq  4010e0 <close@plt>
  402bac:	b8 ff ff ff ff       	mov    $0xffffffff,%eax
  402bb1:	e9 e2 fd ff ff       	jmpq   402998 <submitr+0x2df>
  402bb6:	48 b8 45 72 72 6f 72 	movabs $0x43203a726f727245,%rax
  402bbd:	3a 20 43 
  402bc0:	48 ba 6c 69 65 6e 74 	movabs $0x6e7520746e65696c,%rdx
  402bc7:	20 75 6e 
  402bca:	48 89 45 00          	mov    %rax,0x0(%rbp)
  402bce:	48 89 55 08          	mov    %rdx,0x8(%rbp)
  402bd2:	48 b8 61 62 6c 65 20 	movabs $0x206f7420656c6261,%rax
  402bd9:	74 6f 20 
  402bdc:	48 ba 77 72 69 74 65 	movabs $0x6f74206574697277,%rdx
  402be3:	20 74 6f 
  402be6:	48 89 45 10          	mov    %rax,0x10(%rbp)
  402bea:	48 89 55 18          	mov    %rdx,0x18(%rbp)
  402bee:	48 b8 20 74 68 65 20 	movabs $0x7365722065687420,%rax
  402bf5:	72 65 73 
  402bf8:	48 ba 75 6c 74 20 73 	movabs $0x7672657320746c75,%rdx
  402bff:	65 72 76 
  402c02:	48 89 45 20          	mov    %rax,0x20(%rbp)
  402c06:	48 89 55 28          	mov    %rdx,0x28(%rbp)
  402c0a:	66 c7 45 30 65 72    	movw   $0x7265,0x30(%rbp)
  402c10:	c6 45 32 00          	movb   $0x0,0x32(%rbp)
  402c14:	89 df                	mov    %ebx,%edi
  402c16:	e8 c5 e4 ff ff       	callq  4010e0 <close@plt>
  402c1b:	b8 ff ff ff ff       	mov    $0xffffffff,%eax
  402c20:	e9 73 fd ff ff       	jmpq   402998 <submitr+0x2df>
  402c25:	48 b8 45 72 72 6f 72 	movabs $0x43203a726f727245,%rax
  402c2c:	3a 20 43 
  402c2f:	48 ba 6c 69 65 6e 74 	movabs $0x6e7520746e65696c,%rdx
  402c36:	20 75 6e 
  402c39:	48 89 45 00          	mov    %rax,0x0(%rbp)
  402c3d:	48 89 55 08          	mov    %rdx,0x8(%rbp)
  402c41:	48 b8 61 62 6c 65 20 	movabs $0x206f7420656c6261,%rax
  402c48:	74 6f 20 
  402c4b:	48 ba 72 65 61 64 20 	movabs $0x7269662064616572,%rdx
  402c52:	66 69 72 
  402c55:	48 89 45 10          	mov    %rax,0x10(%rbp)
  402c59:	48 89 55 18          	mov    %rdx,0x18(%rbp)
  402c5d:	48 b8 73 74 20 68 65 	movabs $0x6564616568207473,%rax
  402c64:	61 64 65 
  402c67:	48 ba 72 20 66 72 6f 	movabs $0x72206d6f72662072,%rdx
  402c6e:	6d 20 72 
  402c71:	48 89 45 20          	mov    %rax,0x20(%rbp)
  402c75:	48 89 55 28          	mov    %rdx,0x28(%rbp)
  402c79:	48 b8 65 73 75 6c 74 	movabs $0x657320746c757365,%rax
  402c80:	20 73 65 
  402c83:	48 89 45 30          	mov    %rax,0x30(%rbp)
  402c87:	c7 45 38 72 76 65 72 	movl   $0x72657672,0x38(%rbp)
  402c8e:	c6 45 3c 00          	movb   $0x0,0x3c(%rbp)
  402c92:	89 df                	mov    %ebx,%edi
  402c94:	e8 47 e4 ff ff       	callq  4010e0 <close@plt>
  402c99:	b8 ff ff ff ff       	mov    $0xffffffff,%eax
  402c9e:	e9 f5 fc ff ff       	jmpq   402998 <submitr+0x2df>
  402ca3:	48 8d b4 24 30 60 00 	lea    0x6030(%rsp),%rsi
  402caa:	00 
  402cab:	48 8d bc 24 30 80 00 	lea    0x8030(%rsp),%rdi
  402cb2:	00 
  402cb3:	ba 00 20 00 00       	mov    $0x2000,%edx
  402cb8:	e8 80 f9 ff ff       	callq  40263d <rio_readlineb>
  402cbd:	48 85 c0             	test   %rax,%rax
  402cc0:	0f 8e 97 00 00 00    	jle    402d5d <submitr+0x6a4>
  402cc6:	8b 94 24 2c 20 00 00 	mov    0x202c(%rsp),%edx
  402ccd:	81 fa c8 00 00 00    	cmp    $0xc8,%edx
  402cd3:	0f 85 08 01 00 00    	jne    402de1 <submitr+0x728>
  402cd9:	48 8d b4 24 30 60 00 	lea    0x6030(%rsp),%rsi
  402ce0:	00 
  402ce1:	48 89 ef             	mov    %rbp,%rdi
  402ce4:	e8 87 e3 ff ff       	callq  401070 <strcpy@plt>
  402ce9:	89 df                	mov    %ebx,%edi
  402ceb:	e8 f0 e3 ff ff       	callq  4010e0 <close@plt>
  402cf0:	b9 04 00 00 00       	mov    $0x4,%ecx
  402cf5:	48 8d 3d 14 1a 00 00 	lea    0x1a14(%rip),%rdi        # 404710 <trans_char+0xc0>
  402cfc:	48 89 ee             	mov    %rbp,%rsi
  402cff:	f3 a6                	repz cmpsb %es:(%rdi),%ds:(%rsi)
  402d01:	0f 97 c0             	seta   %al
  402d04:	1c 00                	sbb    $0x0,%al
  402d06:	0f be c0             	movsbl %al,%eax
  402d09:	85 c0                	test   %eax,%eax
  402d0b:	0f 84 87 fc ff ff    	je     402998 <submitr+0x2df>
  402d11:	b9 05 00 00 00       	mov    $0x5,%ecx
  402d16:	48 8d 3d f7 19 00 00 	lea    0x19f7(%rip),%rdi        # 404714 <trans_char+0xc4>
  402d1d:	48 89 ee             	mov    %rbp,%rsi
  402d20:	f3 a6                	repz cmpsb %es:(%rdi),%ds:(%rsi)
  402d22:	0f 97 c0             	seta   %al
  402d25:	1c 00                	sbb    $0x0,%al
  402d27:	0f be c0             	movsbl %al,%eax
  402d2a:	85 c0                	test   %eax,%eax
  402d2c:	0f 84 66 fc ff ff    	je     402998 <submitr+0x2df>
  402d32:	b9 03 00 00 00       	mov    $0x3,%ecx
  402d37:	48 8d 3d db 19 00 00 	lea    0x19db(%rip),%rdi        # 404719 <trans_char+0xc9>
  402d3e:	48 89 ee             	mov    %rbp,%rsi
  402d41:	f3 a6                	repz cmpsb %es:(%rdi),%ds:(%rsi)
  402d43:	0f 97 c0             	seta   %al
  402d46:	1c 00                	sbb    $0x0,%al
  402d48:	0f be c0             	movsbl %al,%eax
  402d4b:	85 c0                	test   %eax,%eax
  402d4d:	0f 84 45 fc ff ff    	je     402998 <submitr+0x2df>
  402d53:	b8 ff ff ff ff       	mov    $0xffffffff,%eax
  402d58:	e9 3b fc ff ff       	jmpq   402998 <submitr+0x2df>
  402d5d:	48 b8 45 72 72 6f 72 	movabs $0x43203a726f727245,%rax
  402d64:	3a 20 43 
  402d67:	48 ba 6c 69 65 6e 74 	movabs $0x6e7520746e65696c,%rdx
  402d6e:	20 75 6e 
  402d71:	48 89 45 00          	mov    %rax,0x0(%rbp)
  402d75:	48 89 55 08          	mov    %rdx,0x8(%rbp)
  402d79:	48 b8 61 62 6c 65 20 	movabs $0x206f7420656c6261,%rax
  402d80:	74 6f 20 
  402d83:	48 ba 72 65 61 64 20 	movabs $0x6174732064616572,%rdx
  402d8a:	73 74 61 
  402d8d:	48 89 45 10          	mov    %rax,0x10(%rbp)
  402d91:	48 89 55 18          	mov    %rdx,0x18(%rbp)
  402d95:	48 b8 74 75 73 20 6d 	movabs $0x7373656d20737574,%rax
  402d9c:	65 73 73 
  402d9f:	48 ba 61 67 65 20 66 	movabs $0x6d6f726620656761,%rdx
  402da6:	72 6f 6d 
  402da9:	48 89 45 20          	mov    %rax,0x20(%rbp)
  402dad:	48 89 55 28          	mov    %rdx,0x28(%rbp)
  402db1:	48 b8 20 72 65 73 75 	movabs $0x20746c7573657220,%rax
  402db8:	6c 74 20 
  402dbb:	48 89 45 30          	mov    %rax,0x30(%rbp)
  402dbf:	c7 45 38 73 65 72 76 	movl   $0x76726573,0x38(%rbp)
  402dc6:	66 c7 45 3c 65 72    	movw   $0x7265,0x3c(%rbp)
  402dcc:	c6 45 3e 00          	movb   $0x0,0x3e(%rbp)
  402dd0:	89 df                	mov    %ebx,%edi
  402dd2:	e8 09 e3 ff ff       	callq  4010e0 <close@plt>
  402dd7:	b8 ff ff ff ff       	mov    $0xffffffff,%eax
  402ddc:	e9 b7 fb ff ff       	jmpq   402998 <submitr+0x2df>
  402de1:	48 8d 4c 24 20       	lea    0x20(%rsp),%rcx
  402de6:	48 8d 35 db 18 00 00 	lea    0x18db(%rip),%rsi        # 4046c8 <trans_char+0x78>
  402ded:	48 89 ef             	mov    %rbp,%rdi
  402df0:	b8 00 00 00 00       	mov    $0x0,%eax
  402df5:	e8 e6 e3 ff ff       	callq  4011e0 <sprintf@plt>
  402dfa:	89 df                	mov    %ebx,%edi
  402dfc:	e8 df e2 ff ff       	callq  4010e0 <close@plt>
  402e01:	b8 ff ff ff ff       	mov    $0xffffffff,%eax
  402e06:	e9 8d fb ff ff       	jmpq   402998 <submitr+0x2df>

0000000000402e0b <init_timeout>:
  402e0b:	85 ff                	test   %edi,%edi
  402e0d:	74 26                	je     402e35 <init_timeout+0x2a>
  402e0f:	53                   	push   %rbx
  402e10:	89 fb                	mov    %edi,%ebx
  402e12:	78 1a                	js     402e2e <init_timeout+0x23>
  402e14:	48 8d 35 31 f6 ff ff 	lea    -0x9cf(%rip),%rsi        # 40244c <sigalrm_handler>
  402e1b:	bf 0e 00 00 00       	mov    $0xe,%edi
  402e20:	e8 db e2 ff ff       	callq  401100 <signal@plt>
  402e25:	89 df                	mov    %ebx,%edi
  402e27:	e8 a4 e2 ff ff       	callq  4010d0 <alarm@plt>
  402e2c:	5b                   	pop    %rbx
  402e2d:	c3                   	retq   
  402e2e:	bb 00 00 00 00       	mov    $0x0,%ebx
  402e33:	eb df                	jmp    402e14 <init_timeout+0x9>
  402e35:	c3                   	retq   

0000000000402e36 <init_driver>:
  402e36:	41 54                	push   %r12
  402e38:	55                   	push   %rbp
  402e39:	53                   	push   %rbx
  402e3a:	48 83 ec 10          	sub    $0x10,%rsp
  402e3e:	49 89 fc             	mov    %rdi,%r12
  402e41:	be 01 00 00 00       	mov    $0x1,%esi
  402e46:	bf 0d 00 00 00       	mov    $0xd,%edi
  402e4b:	e8 b0 e2 ff ff       	callq  401100 <signal@plt>
  402e50:	be 01 00 00 00       	mov    $0x1,%esi
  402e55:	bf 1d 00 00 00       	mov    $0x1d,%edi
  402e5a:	e8 a1 e2 ff ff       	callq  401100 <signal@plt>
  402e5f:	be 01 00 00 00       	mov    $0x1,%esi
  402e64:	bf 1d 00 00 00       	mov    $0x1d,%edi
  402e69:	e8 92 e2 ff ff       	callq  401100 <signal@plt>
  402e6e:	ba 00 00 00 00       	mov    $0x0,%edx
  402e73:	be 01 00 00 00       	mov    $0x1,%esi
  402e78:	bf 02 00 00 00       	mov    $0x2,%edi
  402e7d:	e8 9e e3 ff ff       	callq  401220 <socket@plt>
  402e82:	85 c0                	test   %eax,%eax
  402e84:	0f 88 8a 00 00 00    	js     402f14 <init_driver+0xde>
  402e8a:	89 c3                	mov    %eax,%ebx
  402e8c:	48 8d 3d 89 18 00 00 	lea    0x1889(%rip),%rdi        # 40471c <trans_char+0xcc>
  402e93:	e8 78 e2 ff ff       	callq  401110 <gethostbyname@plt>
  402e98:	48 85 c0             	test   %rax,%rax
  402e9b:	0f 84 c6 00 00 00    	je     402f67 <init_driver+0x131>
  402ea1:	48 89 e5             	mov    %rsp,%rbp
  402ea4:	48 c7 44 24 02 00 00 	movq   $0x0,0x2(%rsp)
  402eab:	00 00 
  402ead:	c7 45 0a 00 00 00 00 	movl   $0x0,0xa(%rbp)
  402eb4:	66 c7 45 0e 00 00    	movw   $0x0,0xe(%rbp)
  402eba:	66 c7 04 24 02 00    	movw   $0x2,(%rsp)
  402ec0:	48 8b 48 18          	mov    0x18(%rax),%rcx
  402ec4:	48 63 50 14          	movslq 0x14(%rax),%rdx
  402ec8:	48 8d 7d 04          	lea    0x4(%rbp),%rdi
  402ecc:	48 8b 31             	mov    (%rcx),%rsi
  402ecf:	e8 bc e2 ff ff       	callq  401190 <memmove@plt>
  402ed4:	66 c7 44 24 02 3c 9a 	movw   $0x9a3c,0x2(%rsp)
  402edb:	ba 10 00 00 00       	mov    $0x10,%edx
  402ee0:	48 89 ee             	mov    %rbp,%rsi
  402ee3:	89 df                	mov    %ebx,%edi
  402ee5:	e8 16 e3 ff ff       	callq  401200 <connect@plt>
  402eea:	85 c0                	test   %eax,%eax
  402eec:	0f 88 e7 00 00 00    	js     402fd9 <init_driver+0x1a3>
  402ef2:	89 df                	mov    %ebx,%edi
  402ef4:	e8 e7 e1 ff ff       	callq  4010e0 <close@plt>
  402ef9:	66 41 c7 04 24 4f 4b 	movw   $0x4b4f,(%r12)
  402f00:	41 c6 44 24 02 00    	movb   $0x0,0x2(%r12)
  402f06:	b8 00 00 00 00       	mov    $0x0,%eax
  402f0b:	48 83 c4 10          	add    $0x10,%rsp
  402f0f:	5b                   	pop    %rbx
  402f10:	5d                   	pop    %rbp
  402f11:	41 5c                	pop    %r12
  402f13:	c3                   	retq   
  402f14:	48 b8 45 72 72 6f 72 	movabs $0x43203a726f727245,%rax
  402f1b:	3a 20 43 
  402f1e:	48 ba 6c 69 65 6e 74 	movabs $0x6e7520746e65696c,%rdx
  402f25:	20 75 6e 
  402f28:	49 89 04 24          	mov    %rax,(%r12)
  402f2c:	49 89 54 24 08       	mov    %rdx,0x8(%r12)
  402f31:	48 b8 61 62 6c 65 20 	movabs $0x206f7420656c6261,%rax
  402f38:	74 6f 20 
  402f3b:	48 ba 63 72 65 61 74 	movabs $0x7320657461657263,%rdx
  402f42:	65 20 73 
  402f45:	49 89 44 24 10       	mov    %rax,0x10(%r12)
  402f4a:	49 89 54 24 18       	mov    %rdx,0x18(%r12)
  402f4f:	41 c7 44 24 20 6f 63 	movl   $0x656b636f,0x20(%r12)
  402f56:	6b 65 
  402f58:	66 41 c7 44 24 24 74 	movw   $0x74,0x24(%r12)
  402f5f:	00 
  402f60:	b8 ff ff ff ff       	mov    $0xffffffff,%eax
  402f65:	eb a4                	jmp    402f0b <init_driver+0xd5>
  402f67:	48 b8 45 72 72 6f 72 	movabs $0x44203a726f727245,%rax
  402f6e:	3a 20 44 
  402f71:	48 ba 4e 53 20 69 73 	movabs $0x6e7520736920534e,%rdx
  402f78:	20 75 6e 
  402f7b:	49 89 04 24          	mov    %rax,(%r12)
  402f7f:	49 89 54 24 08       	mov    %rdx,0x8(%r12)
  402f84:	48 b8 61 62 6c 65 20 	movabs $0x206f7420656c6261,%rax
  402f8b:	74 6f 20 
  402f8e:	48 ba 72 65 73 6f 6c 	movabs $0x2065766c6f736572,%rdx
  402f95:	76 65 20 
  402f98:	49 89 44 24 10       	mov    %rax,0x10(%r12)
  402f9d:	49 89 54 24 18       	mov    %rdx,0x18(%r12)
  402fa2:	48 b8 73 65 72 76 65 	movabs $0x6120726576726573,%rax
  402fa9:	72 20 61 
  402fac:	49 89 44 24 20       	mov    %rax,0x20(%r12)
  402fb1:	41 c7 44 24 28 64 64 	movl   $0x65726464,0x28(%r12)
  402fb8:	72 65 
  402fba:	66 41 c7 44 24 2c 73 	movw   $0x7373,0x2c(%r12)
  402fc1:	73 
  402fc2:	41 c6 44 24 2e 00    	movb   $0x0,0x2e(%r12)
  402fc8:	89 df                	mov    %ebx,%edi
  402fca:	e8 11 e1 ff ff       	callq  4010e0 <close@plt>
  402fcf:	b8 ff ff ff ff       	mov    $0xffffffff,%eax
  402fd4:	e9 32 ff ff ff       	jmpq   402f0b <init_driver+0xd5>
  402fd9:	48 b8 45 72 72 6f 72 	movabs $0x55203a726f727245,%rax
  402fe0:	3a 20 55 
  402fe3:	48 ba 6e 61 62 6c 65 	movabs $0x6f7420656c62616e,%rdx
  402fea:	20 74 6f 
  402fed:	49 89 04 24          	mov    %rax,(%r12)
  402ff1:	49 89 54 24 08       	mov    %rdx,0x8(%r12)
  402ff6:	48 b8 20 63 6f 6e 6e 	movabs $0x7463656e6e6f6320,%rax
  402ffd:	65 63 74 
  403000:	48 ba 20 74 6f 20 73 	movabs $0x76726573206f7420,%rdx
  403007:	65 72 76 
  40300a:	49 89 44 24 10       	mov    %rax,0x10(%r12)
  40300f:	49 89 54 24 18       	mov    %rdx,0x18(%r12)
  403014:	66 41 c7 44 24 20 65 	movw   $0x7265,0x20(%r12)
  40301b:	72 
  40301c:	41 c6 44 24 22 00    	movb   $0x0,0x22(%r12)
  403022:	89 df                	mov    %ebx,%edi
  403024:	e8 b7 e0 ff ff       	callq  4010e0 <close@plt>
  403029:	b8 ff ff ff ff       	mov    $0xffffffff,%eax
  40302e:	e9 d8 fe ff ff       	jmpq   402f0b <init_driver+0xd5>

0000000000403033 <driver_post>:
  403033:	53                   	push   %rbx
  403034:	4c 89 cb             	mov    %r9,%rbx
  403037:	45 85 c0             	test   %r8d,%r8d
  40303a:	75 18                	jne    403054 <driver_post+0x21>
  40303c:	48 85 ff             	test   %rdi,%rdi
  40303f:	74 05                	je     403046 <driver_post+0x13>
  403041:	80 3f 00             	cmpb   $0x0,(%rdi)
  403044:	75 32                	jne    403078 <driver_post+0x45>
  403046:	66 c7 03 4f 4b       	movw   $0x4b4f,(%rbx)
  40304b:	c6 43 02 00          	movb   $0x0,0x2(%rbx)
  40304f:	44 89 c0             	mov    %r8d,%eax
  403052:	5b                   	pop    %rbx
  403053:	c3                   	retq   
  403054:	48 89 ce             	mov    %rcx,%rsi
  403057:	48 8d 3d d6 16 00 00 	lea    0x16d6(%rip),%rdi        # 404734 <trans_char+0xe4>
  40305e:	b8 00 00 00 00       	mov    $0x0,%eax
  403063:	e8 48 e0 ff ff       	callq  4010b0 <printf@plt>
  403068:	66 c7 03 4f 4b       	movw   $0x4b4f,(%rbx)
  40306d:	c6 43 02 00          	movb   $0x0,0x2(%rbx)
  403071:	b8 00 00 00 00       	mov    $0x0,%eax
  403076:	eb da                	jmp    403052 <driver_post+0x1f>
  403078:	48 83 ec 08          	sub    $0x8,%rsp
  40307c:	41 51                	push   %r9
  40307e:	49 89 c9             	mov    %rcx,%r9
  403081:	49 89 d0             	mov    %rdx,%r8
  403084:	48 89 f9             	mov    %rdi,%rcx
  403087:	48 89 f2             	mov    %rsi,%rdx
  40308a:	be 9a 3c 00 00       	mov    $0x3c9a,%esi
  40308f:	48 8d 3d 86 16 00 00 	lea    0x1686(%rip),%rdi        # 40471c <trans_char+0xcc>
  403096:	e8 1e f6 ff ff       	callq  4026b9 <submitr>
  40309b:	48 83 c4 10          	add    $0x10,%rsp
  40309f:	eb b1                	jmp    403052 <driver_post+0x1f>

00000000004030a1 <check>:
  4030a1:	89 f8                	mov    %edi,%eax
  4030a3:	c1 e8 1c             	shr    $0x1c,%eax
  4030a6:	74 1d                	je     4030c5 <check+0x24>
  4030a8:	b9 00 00 00 00       	mov    $0x0,%ecx
  4030ad:	83 f9 1f             	cmp    $0x1f,%ecx
  4030b0:	7f 0d                	jg     4030bf <check+0x1e>
  4030b2:	89 f8                	mov    %edi,%eax
  4030b4:	d3 e8                	shr    %cl,%eax
  4030b6:	3c 0a                	cmp    $0xa,%al
  4030b8:	74 11                	je     4030cb <check+0x2a>
  4030ba:	83 c1 08             	add    $0x8,%ecx
  4030bd:	eb ee                	jmp    4030ad <check+0xc>
  4030bf:	b8 01 00 00 00       	mov    $0x1,%eax
  4030c4:	c3                   	retq   
  4030c5:	b8 00 00 00 00       	mov    $0x0,%eax
  4030ca:	c3                   	retq   
  4030cb:	b8 00 00 00 00       	mov    $0x0,%eax
  4030d0:	c3                   	retq   

00000000004030d1 <gencookie>:
  4030d1:	53                   	push   %rbx
  4030d2:	83 c7 01             	add    $0x1,%edi
  4030d5:	e8 76 df ff ff       	callq  401050 <srandom@plt>
  4030da:	e8 81 e0 ff ff       	callq  401160 <random@plt>
  4030df:	89 c3                	mov    %eax,%ebx
  4030e1:	89 c7                	mov    %eax,%edi
  4030e3:	e8 b9 ff ff ff       	callq  4030a1 <check>
  4030e8:	85 c0                	test   %eax,%eax
  4030ea:	74 ee                	je     4030da <gencookie+0x9>
  4030ec:	89 d8                	mov    %ebx,%eax
  4030ee:	5b                   	pop    %rbx
  4030ef:	c3                   	retq   

00000000004030f0 <__libc_csu_init>:
  4030f0:	41 57                	push   %r15
  4030f2:	49 89 d7             	mov    %rdx,%r15
  4030f5:	41 56                	push   %r14
  4030f7:	49 89 f6             	mov    %rsi,%r14
  4030fa:	41 55                	push   %r13
  4030fc:	41 89 fd             	mov    %edi,%r13d
  4030ff:	41 54                	push   %r12
  403101:	4c 8d 25 08 3d 00 00 	lea    0x3d08(%rip),%r12        # 406e10 <__frame_dummy_init_array_entry>
  403108:	55                   	push   %rbp
  403109:	48 8d 2d 08 3d 00 00 	lea    0x3d08(%rip),%rbp        # 406e18 <__do_global_dtors_aux_fini_array_entry>
  403110:	53                   	push   %rbx
  403111:	4c 29 e5             	sub    %r12,%rbp
  403114:	48 83 ec 08          	sub    $0x8,%rsp
  403118:	e8 e3 de ff ff       	callq  401000 <_init>
  40311d:	48 c1 fd 03          	sar    $0x3,%rbp
  403121:	74 1b                	je     40313e <__libc_csu_init+0x4e>
  403123:	31 db                	xor    %ebx,%ebx
  403125:	0f 1f 00             	nopl   (%rax)
  403128:	4c 89 fa             	mov    %r15,%rdx
  40312b:	4c 89 f6             	mov    %r14,%rsi
  40312e:	44 89 ef             	mov    %r13d,%edi
  403131:	41 ff 14 dc          	callq  *(%r12,%rbx,8)
  403135:	48 83 c3 01          	add    $0x1,%rbx
  403139:	48 39 dd             	cmp    %rbx,%rbp
  40313c:	75 ea                	jne    403128 <__libc_csu_init+0x38>
  40313e:	48 83 c4 08          	add    $0x8,%rsp
  403142:	5b                   	pop    %rbx
  403143:	5d                   	pop    %rbp
  403144:	41 5c                	pop    %r12
  403146:	41 5d                	pop    %r13
  403148:	41 5e                	pop    %r14
  40314a:	41 5f                	pop    %r15
  40314c:	c3                   	retq   
  40314d:	0f 1f 00             	nopl   (%rax)

0000000000403150 <__libc_csu_fini>:
  403150:	c3                   	retq   

Disassembly of section .fini:

0000000000403154 <_fini>:
  403154:	48 83 ec 08          	sub    $0x8,%rsp
  403158:	48 83 c4 08          	add    $0x8,%rsp
  40315c:	c3                   	retq   
