
rtarget:     file format elf64-x86-64


Disassembly of section .init:

0000000000401000 <_init>:
  401000:	48 83 ec 08          	sub    $0x8,%rsp
  401004:	48 8b 05 ed 5f 00 00 	mov    0x5fed(%rip),%rax        # 406ff8 <__gmon_start__>
  40100b:	48 85 c0             	test   %rax,%rax
  40100e:	74 02                	je     401012 <_init+0x12>
  401010:	ff d0                	callq  *%rax
  401012:	48 83 c4 08          	add    $0x8,%rsp
  401016:	c3                   	retq   

Disassembly of section .plt:

0000000000401020 <.plt>:
  401020:	ff 35 e2 5f 00 00    	pushq  0x5fe2(%rip)        # 407008 <_GLOBAL_OFFSET_TABLE_+0x8>
  401026:	ff 25 e4 5f 00 00    	jmpq   *0x5fe4(%rip)        # 407010 <_GLOBAL_OFFSET_TABLE_+0x10>
  40102c:	0f 1f 40 00          	nopl   0x0(%rax)

0000000000401030 <strcasecmp@plt>:
  401030:	ff 25 e2 5f 00 00    	jmpq   *0x5fe2(%rip)        # 407018 <strcasecmp@GLIBC_2.2.5>
  401036:	68 00 00 00 00       	pushq  $0x0
  40103b:	e9 e0 ff ff ff       	jmpq   401020 <.plt>

0000000000401040 <__errno_location@plt>:
  401040:	ff 25 da 5f 00 00    	jmpq   *0x5fda(%rip)        # 407020 <__errno_location@GLIBC_2.2.5>
  401046:	68 01 00 00 00       	pushq  $0x1
  40104b:	e9 d0 ff ff ff       	jmpq   401020 <.plt>

0000000000401050 <srandom@plt>:
  401050:	ff 25 d2 5f 00 00    	jmpq   *0x5fd2(%rip)        # 407028 <srandom@GLIBC_2.2.5>
  401056:	68 02 00 00 00       	pushq  $0x2
  40105b:	e9 c0 ff ff ff       	jmpq   401020 <.plt>

0000000000401060 <strncmp@plt>:
  401060:	ff 25 ca 5f 00 00    	jmpq   *0x5fca(%rip)        # 407030 <strncmp@GLIBC_2.2.5>
  401066:	68 03 00 00 00       	pushq  $0x3
  40106b:	e9 b0 ff ff ff       	jmpq   401020 <.plt>

0000000000401070 <strcpy@plt>:
  401070:	ff 25 c2 5f 00 00    	jmpq   *0x5fc2(%rip)        # 407038 <strcpy@GLIBC_2.2.5>
  401076:	68 04 00 00 00       	pushq  $0x4
  40107b:	e9 a0 ff ff ff       	jmpq   401020 <.plt>

0000000000401080 <puts@plt>:
  401080:	ff 25 ba 5f 00 00    	jmpq   *0x5fba(%rip)        # 407040 <puts@GLIBC_2.2.5>
  401086:	68 05 00 00 00       	pushq  $0x5
  40108b:	e9 90 ff ff ff       	jmpq   401020 <.plt>

0000000000401090 <write@plt>:
  401090:	ff 25 b2 5f 00 00    	jmpq   *0x5fb2(%rip)        # 407048 <write@GLIBC_2.2.5>
  401096:	68 06 00 00 00       	pushq  $0x6
  40109b:	e9 80 ff ff ff       	jmpq   401020 <.plt>

00000000004010a0 <mmap@plt>:
  4010a0:	ff 25 aa 5f 00 00    	jmpq   *0x5faa(%rip)        # 407050 <mmap@GLIBC_2.2.5>
  4010a6:	68 07 00 00 00       	pushq  $0x7
  4010ab:	e9 70 ff ff ff       	jmpq   401020 <.plt>

00000000004010b0 <printf@plt>:
  4010b0:	ff 25 a2 5f 00 00    	jmpq   *0x5fa2(%rip)        # 407058 <printf@GLIBC_2.2.5>
  4010b6:	68 08 00 00 00       	pushq  $0x8
  4010bb:	e9 60 ff ff ff       	jmpq   401020 <.plt>

00000000004010c0 <memset@plt>:
  4010c0:	ff 25 9a 5f 00 00    	jmpq   *0x5f9a(%rip)        # 407060 <memset@GLIBC_2.2.5>
  4010c6:	68 09 00 00 00       	pushq  $0x9
  4010cb:	e9 50 ff ff ff       	jmpq   401020 <.plt>

00000000004010d0 <alarm@plt>:
  4010d0:	ff 25 92 5f 00 00    	jmpq   *0x5f92(%rip)        # 407068 <alarm@GLIBC_2.2.5>
  4010d6:	68 0a 00 00 00       	pushq  $0xa
  4010db:	e9 40 ff ff ff       	jmpq   401020 <.plt>

00000000004010e0 <close@plt>:
  4010e0:	ff 25 8a 5f 00 00    	jmpq   *0x5f8a(%rip)        # 407070 <close@GLIBC_2.2.5>
  4010e6:	68 0b 00 00 00       	pushq  $0xb
  4010eb:	e9 30 ff ff ff       	jmpq   401020 <.plt>

00000000004010f0 <read@plt>:
  4010f0:	ff 25 82 5f 00 00    	jmpq   *0x5f82(%rip)        # 407078 <read@GLIBC_2.2.5>
  4010f6:	68 0c 00 00 00       	pushq  $0xc
  4010fb:	e9 20 ff ff ff       	jmpq   401020 <.plt>

0000000000401100 <signal@plt>:
  401100:	ff 25 7a 5f 00 00    	jmpq   *0x5f7a(%rip)        # 407080 <signal@GLIBC_2.2.5>
  401106:	68 0d 00 00 00       	pushq  $0xd
  40110b:	e9 10 ff ff ff       	jmpq   401020 <.plt>

0000000000401110 <gethostbyname@plt>:
  401110:	ff 25 72 5f 00 00    	jmpq   *0x5f72(%rip)        # 407088 <gethostbyname@GLIBC_2.2.5>
  401116:	68 0e 00 00 00       	pushq  $0xe
  40111b:	e9 00 ff ff ff       	jmpq   401020 <.plt>

0000000000401120 <fprintf@plt>:
  401120:	ff 25 6a 5f 00 00    	jmpq   *0x5f6a(%rip)        # 407090 <fprintf@GLIBC_2.2.5>
  401126:	68 0f 00 00 00       	pushq  $0xf
  40112b:	e9 f0 fe ff ff       	jmpq   401020 <.plt>

0000000000401130 <strtol@plt>:
  401130:	ff 25 62 5f 00 00    	jmpq   *0x5f62(%rip)        # 407098 <strtol@GLIBC_2.2.5>
  401136:	68 10 00 00 00       	pushq  $0x10
  40113b:	e9 e0 fe ff ff       	jmpq   401020 <.plt>

0000000000401140 <memcpy@plt>:
  401140:	ff 25 5a 5f 00 00    	jmpq   *0x5f5a(%rip)        # 4070a0 <memcpy@GLIBC_2.14>
  401146:	68 11 00 00 00       	pushq  $0x11
  40114b:	e9 d0 fe ff ff       	jmpq   401020 <.plt>

0000000000401150 <time@plt>:
  401150:	ff 25 52 5f 00 00    	jmpq   *0x5f52(%rip)        # 4070a8 <time@GLIBC_2.2.5>
  401156:	68 12 00 00 00       	pushq  $0x12
  40115b:	e9 c0 fe ff ff       	jmpq   401020 <.plt>

0000000000401160 <random@plt>:
  401160:	ff 25 4a 5f 00 00    	jmpq   *0x5f4a(%rip)        # 4070b0 <random@GLIBC_2.2.5>
  401166:	68 13 00 00 00       	pushq  $0x13
  40116b:	e9 b0 fe ff ff       	jmpq   401020 <.plt>

0000000000401170 <__isoc99_sscanf@plt>:
  401170:	ff 25 42 5f 00 00    	jmpq   *0x5f42(%rip)        # 4070b8 <__isoc99_sscanf@GLIBC_2.7>
  401176:	68 14 00 00 00       	pushq  $0x14
  40117b:	e9 a0 fe ff ff       	jmpq   401020 <.plt>

0000000000401180 <munmap@plt>:
  401180:	ff 25 3a 5f 00 00    	jmpq   *0x5f3a(%rip)        # 4070c0 <munmap@GLIBC_2.2.5>
  401186:	68 15 00 00 00       	pushq  $0x15
  40118b:	e9 90 fe ff ff       	jmpq   401020 <.plt>

0000000000401190 <memmove@plt>:
  401190:	ff 25 32 5f 00 00    	jmpq   *0x5f32(%rip)        # 4070c8 <memmove@GLIBC_2.2.5>
  401196:	68 16 00 00 00       	pushq  $0x16
  40119b:	e9 80 fe ff ff       	jmpq   401020 <.plt>

00000000004011a0 <fopen@plt>:
  4011a0:	ff 25 2a 5f 00 00    	jmpq   *0x5f2a(%rip)        # 4070d0 <fopen@GLIBC_2.2.5>
  4011a6:	68 17 00 00 00       	pushq  $0x17
  4011ab:	e9 70 fe ff ff       	jmpq   401020 <.plt>

00000000004011b0 <getopt@plt>:
  4011b0:	ff 25 22 5f 00 00    	jmpq   *0x5f22(%rip)        # 4070d8 <getopt@GLIBC_2.2.5>
  4011b6:	68 18 00 00 00       	pushq  $0x18
  4011bb:	e9 60 fe ff ff       	jmpq   401020 <.plt>

00000000004011c0 <strtoul@plt>:
  4011c0:	ff 25 1a 5f 00 00    	jmpq   *0x5f1a(%rip)        # 4070e0 <strtoul@GLIBC_2.2.5>
  4011c6:	68 19 00 00 00       	pushq  $0x19
  4011cb:	e9 50 fe ff ff       	jmpq   401020 <.plt>

00000000004011d0 <gethostname@plt>:
  4011d0:	ff 25 12 5f 00 00    	jmpq   *0x5f12(%rip)        # 4070e8 <gethostname@GLIBC_2.2.5>
  4011d6:	68 1a 00 00 00       	pushq  $0x1a
  4011db:	e9 40 fe ff ff       	jmpq   401020 <.plt>

00000000004011e0 <sprintf@plt>:
  4011e0:	ff 25 0a 5f 00 00    	jmpq   *0x5f0a(%rip)        # 4070f0 <sprintf@GLIBC_2.2.5>
  4011e6:	68 1b 00 00 00       	pushq  $0x1b
  4011eb:	e9 30 fe ff ff       	jmpq   401020 <.plt>

00000000004011f0 <exit@plt>:
  4011f0:	ff 25 02 5f 00 00    	jmpq   *0x5f02(%rip)        # 4070f8 <exit@GLIBC_2.2.5>
  4011f6:	68 1c 00 00 00       	pushq  $0x1c
  4011fb:	e9 20 fe ff ff       	jmpq   401020 <.plt>

0000000000401200 <connect@plt>:
  401200:	ff 25 fa 5e 00 00    	jmpq   *0x5efa(%rip)        # 407100 <connect@GLIBC_2.2.5>
  401206:	68 1d 00 00 00       	pushq  $0x1d
  40120b:	e9 10 fe ff ff       	jmpq   401020 <.plt>

0000000000401210 <getc@plt>:
  401210:	ff 25 f2 5e 00 00    	jmpq   *0x5ef2(%rip)        # 407108 <getc@GLIBC_2.2.5>
  401216:	68 1e 00 00 00       	pushq  $0x1e
  40121b:	e9 00 fe ff ff       	jmpq   401020 <.plt>

0000000000401220 <socket@plt>:
  401220:	ff 25 ea 5e 00 00    	jmpq   *0x5eea(%rip)        # 407110 <socket@GLIBC_2.2.5>
  401226:	68 1f 00 00 00       	pushq  $0x1f
  40122b:	e9 f0 fd ff ff       	jmpq   401020 <.plt>

Disassembly of section .text:

0000000000401230 <_start>:
  401230:	31 ed                	xor    %ebp,%ebp
  401232:	49 89 d1             	mov    %rdx,%r9
  401235:	5e                   	pop    %rsi
  401236:	48 89 e2             	mov    %rsp,%rdx
  401239:	48 83 e4 f0          	and    $0xfffffffffffffff0,%rsp
  40123d:	50                   	push   %rax
  40123e:	54                   	push   %rsp
  40123f:	49 c7 c0 50 30 40 00 	mov    $0x403050,%r8
  401246:	48 c7 c1 f0 2f 40 00 	mov    $0x402ff0,%rcx
  40124d:	48 c7 c7 f6 14 40 00 	mov    $0x4014f6,%rdi
  401254:	ff 15 96 5d 00 00    	callq  *0x5d96(%rip)        # 406ff0 <__libc_start_main@GLIBC_2.2.5>
  40125a:	f4                   	hlt    
  40125b:	0f 1f 44 00 00       	nopl   0x0(%rax,%rax,1)

0000000000401260 <_dl_relocate_static_pie>:
  401260:	c3                   	retq   
  401261:	66 2e 0f 1f 84 00 00 	nopw   %cs:0x0(%rax,%rax,1)
  401268:	00 00 00 
  40126b:	0f 1f 44 00 00       	nopl   0x0(%rax,%rax,1)

0000000000401270 <deregister_tm_clones>:
  401270:	b8 88 74 40 00       	mov    $0x407488,%eax
  401275:	48 3d 88 74 40 00    	cmp    $0x407488,%rax
  40127b:	74 13                	je     401290 <deregister_tm_clones+0x20>
  40127d:	b8 00 00 00 00       	mov    $0x0,%eax
  401282:	48 85 c0             	test   %rax,%rax
  401285:	74 09                	je     401290 <deregister_tm_clones+0x20>
  401287:	bf 88 74 40 00       	mov    $0x407488,%edi
  40128c:	ff e0                	jmpq   *%rax
  40128e:	66 90                	xchg   %ax,%ax
  401290:	c3                   	retq   
  401291:	66 66 2e 0f 1f 84 00 	data16 nopw %cs:0x0(%rax,%rax,1)
  401298:	00 00 00 00 
  40129c:	0f 1f 40 00          	nopl   0x0(%rax)

00000000004012a0 <register_tm_clones>:
  4012a0:	be 88 74 40 00       	mov    $0x407488,%esi
  4012a5:	48 81 ee 88 74 40 00 	sub    $0x407488,%rsi
  4012ac:	48 c1 fe 03          	sar    $0x3,%rsi
  4012b0:	48 89 f0             	mov    %rsi,%rax
  4012b3:	48 c1 e8 3f          	shr    $0x3f,%rax
  4012b7:	48 01 c6             	add    %rax,%rsi
  4012ba:	48 d1 fe             	sar    %rsi
  4012bd:	74 11                	je     4012d0 <register_tm_clones+0x30>
  4012bf:	b8 00 00 00 00       	mov    $0x0,%eax
  4012c4:	48 85 c0             	test   %rax,%rax
  4012c7:	74 07                	je     4012d0 <register_tm_clones+0x30>
  4012c9:	bf 88 74 40 00       	mov    $0x407488,%edi
  4012ce:	ff e0                	jmpq   *%rax
  4012d0:	c3                   	retq   
  4012d1:	66 66 2e 0f 1f 84 00 	data16 nopw %cs:0x0(%rax,%rax,1)
  4012d8:	00 00 00 00 
  4012dc:	0f 1f 40 00          	nopl   0x0(%rax)

00000000004012e0 <__do_global_dtors_aux>:
  4012e0:	80 3d e1 61 00 00 00 	cmpb   $0x0,0x61e1(%rip)        # 4074c8 <completed.7325>
  4012e7:	75 17                	jne    401300 <__do_global_dtors_aux+0x20>
  4012e9:	55                   	push   %rbp
  4012ea:	48 89 e5             	mov    %rsp,%rbp
  4012ed:	e8 7e ff ff ff       	callq  401270 <deregister_tm_clones>
  4012f2:	c6 05 cf 61 00 00 01 	movb   $0x1,0x61cf(%rip)        # 4074c8 <completed.7325>
  4012f9:	5d                   	pop    %rbp
  4012fa:	c3                   	retq   
  4012fb:	0f 1f 44 00 00       	nopl   0x0(%rax,%rax,1)
  401300:	c3                   	retq   
  401301:	66 66 2e 0f 1f 84 00 	data16 nopw %cs:0x0(%rax,%rax,1)
  401308:	00 00 00 00 
  40130c:	0f 1f 40 00          	nopl   0x0(%rax)

0000000000401310 <frame_dummy>:
  401310:	eb 8e                	jmp    4012a0 <register_tm_clones>

0000000000401312 <usage>:
  401312:	48 83 ec 08          	sub    $0x8,%rsp
  401316:	48 89 fe             	mov    %rdi,%rsi
  401319:	83 3d ec 61 00 00 00 	cmpl   $0x0,0x61ec(%rip)        # 40750c <is_checker>
  401320:	74 4b                	je     40136d <usage+0x5b>
  401322:	48 8d 3d df 2c 00 00 	lea    0x2cdf(%rip),%rdi        # 404008 <_IO_stdin_used+0x8>
  401329:	b8 00 00 00 00       	mov    $0x0,%eax
  40132e:	e8 7d fd ff ff       	callq  4010b0 <printf@plt>
  401333:	48 8d 3d 06 2d 00 00 	lea    0x2d06(%rip),%rdi        # 404040 <_IO_stdin_used+0x40>
  40133a:	e8 41 fd ff ff       	callq  401080 <puts@plt>
  40133f:	48 8d 3d 72 2e 00 00 	lea    0x2e72(%rip),%rdi        # 4041b8 <_IO_stdin_used+0x1b8>
  401346:	e8 35 fd ff ff       	callq  401080 <puts@plt>
  40134b:	48 8d 3d 16 2d 00 00 	lea    0x2d16(%rip),%rdi        # 404068 <_IO_stdin_used+0x68>
  401352:	e8 29 fd ff ff       	callq  401080 <puts@plt>
  401357:	48 8d 3d 74 2e 00 00 	lea    0x2e74(%rip),%rdi        # 4041d2 <_IO_stdin_used+0x1d2>
  40135e:	e8 1d fd ff ff       	callq  401080 <puts@plt>
  401363:	bf 00 00 00 00       	mov    $0x0,%edi
  401368:	e8 83 fe ff ff       	callq  4011f0 <exit@plt>
  40136d:	48 8d 3d 7a 2e 00 00 	lea    0x2e7a(%rip),%rdi        # 4041ee <_IO_stdin_used+0x1ee>
  401374:	b8 00 00 00 00       	mov    $0x0,%eax
  401379:	e8 32 fd ff ff       	callq  4010b0 <printf@plt>
  40137e:	48 8d 3d 0b 2d 00 00 	lea    0x2d0b(%rip),%rdi        # 404090 <_IO_stdin_used+0x90>
  401385:	e8 f6 fc ff ff       	callq  401080 <puts@plt>
  40138a:	48 8d 3d 27 2d 00 00 	lea    0x2d27(%rip),%rdi        # 4040b8 <_IO_stdin_used+0xb8>
  401391:	e8 ea fc ff ff       	callq  401080 <puts@plt>
  401396:	48 8d 3d 6f 2e 00 00 	lea    0x2e6f(%rip),%rdi        # 40420c <_IO_stdin_used+0x20c>
  40139d:	e8 de fc ff ff       	callq  401080 <puts@plt>
  4013a2:	eb bf                	jmp    401363 <usage+0x51>

00000000004013a4 <initialize_target>:
  4013a4:	55                   	push   %rbp
  4013a5:	53                   	push   %rbx
  4013a6:	48 81 ec 08 21 00 00 	sub    $0x2108,%rsp
  4013ad:	89 f5                	mov    %esi,%ebp
  4013af:	89 3d 47 61 00 00    	mov    %edi,0x6147(%rip)        # 4074fc <check_level>
  4013b5:	8b 3d 75 5d 00 00    	mov    0x5d75(%rip),%edi        # 407130 <target_id>
  4013bb:	e8 03 1c 00 00       	callq  402fc3 <gencookie>
  4013c0:	89 05 42 61 00 00    	mov    %eax,0x6142(%rip)        # 407508 <cookie>
  4013c6:	89 c7                	mov    %eax,%edi
  4013c8:	e8 f6 1b 00 00       	callq  402fc3 <gencookie>
  4013cd:	89 05 31 61 00 00    	mov    %eax,0x6131(%rip)        # 407504 <authkey>
  4013d3:	8b 05 57 5d 00 00    	mov    0x5d57(%rip),%eax        # 407130 <target_id>
  4013d9:	8d 78 01             	lea    0x1(%rax),%edi
  4013dc:	e8 6f fc ff ff       	callq  401050 <srandom@plt>
  4013e1:	e8 7a fd ff ff       	callq  401160 <random@plt>
  4013e6:	89 c7                	mov    %eax,%edi
  4013e8:	e8 de 02 00 00       	callq  4016cb <scramble>
  4013ed:	89 c3                	mov    %eax,%ebx
  4013ef:	85 ed                	test   %ebp,%ebp
  4013f1:	75 3d                	jne    401430 <initialize_target+0x8c>
  4013f3:	b8 00 00 00 00       	mov    $0x0,%eax
  4013f8:	01 d8                	add    %ebx,%eax
  4013fa:	0f b7 c0             	movzwl %ax,%eax
  4013fd:	8d 04 c5 00 01 00 00 	lea    0x100(,%rax,8),%eax
  401404:	89 c0                	mov    %eax,%eax
  401406:	48 89 05 73 60 00 00 	mov    %rax,0x6073(%rip)        # 407480 <buf_offset>
  40140d:	c6 05 14 6d 00 00 72 	movb   $0x72,0x6d14(%rip)        # 408128 <target_prefix>
  401414:	83 3d dd 60 00 00 00 	cmpl   $0x0,0x60dd(%rip)        # 4074f8 <notify>
  40141b:	74 09                	je     401426 <initialize_target+0x82>
  40141d:	83 3d e8 60 00 00 00 	cmpl   $0x0,0x60e8(%rip)        # 40750c <is_checker>
  401424:	74 22                	je     401448 <initialize_target+0xa4>
  401426:	48 81 c4 08 21 00 00 	add    $0x2108,%rsp
  40142d:	5b                   	pop    %rbx
  40142e:	5d                   	pop    %rbp
  40142f:	c3                   	retq   
  401430:	bf 00 00 00 00       	mov    $0x0,%edi
  401435:	e8 16 fd ff ff       	callq  401150 <time@plt>
  40143a:	89 c7                	mov    %eax,%edi
  40143c:	e8 0f fc ff ff       	callq  401050 <srandom@plt>
  401441:	e8 1a fd ff ff       	callq  401160 <random@plt>
  401446:	eb b0                	jmp    4013f8 <initialize_target+0x54>
  401448:	48 89 e7             	mov    %rsp,%rdi
  40144b:	be 00 01 00 00       	mov    $0x100,%esi
  401450:	e8 7b fd ff ff       	callq  4011d0 <gethostname@plt>
  401455:	89 c5                	mov    %eax,%ebp
  401457:	85 c0                	test   %eax,%eax
  401459:	75 26                	jne    401481 <initialize_target+0xdd>
  40145b:	89 c3                	mov    %eax,%ebx
  40145d:	48 63 c3             	movslq %ebx,%rax
  401460:	48 8d 15 f9 5c 00 00 	lea    0x5cf9(%rip),%rdx        # 407160 <host_table>
  401467:	48 8b 3c c2          	mov    (%rdx,%rax,8),%rdi
  40146b:	48 85 ff             	test   %rdi,%rdi
  40146e:	74 2c                	je     40149c <initialize_target+0xf8>
  401470:	48 89 e6             	mov    %rsp,%rsi
  401473:	e8 b8 fb ff ff       	callq  401030 <strcasecmp@plt>
  401478:	85 c0                	test   %eax,%eax
  40147a:	74 1b                	je     401497 <initialize_target+0xf3>
  40147c:	83 c3 01             	add    $0x1,%ebx
  40147f:	eb dc                	jmp    40145d <initialize_target+0xb9>
  401481:	48 8d 3d 60 2c 00 00 	lea    0x2c60(%rip),%rdi        # 4040e8 <_IO_stdin_used+0xe8>
  401488:	e8 f3 fb ff ff       	callq  401080 <puts@plt>
  40148d:	bf 08 00 00 00       	mov    $0x8,%edi
  401492:	e8 59 fd ff ff       	callq  4011f0 <exit@plt>
  401497:	bd 01 00 00 00       	mov    $0x1,%ebp
  40149c:	85 ed                	test   %ebp,%ebp
  40149e:	74 38                	je     4014d8 <initialize_target+0x134>
  4014a0:	48 8d bc 24 00 01 00 	lea    0x100(%rsp),%rdi
  4014a7:	00 
  4014a8:	e8 7b 18 00 00       	callq  402d28 <init_driver>
  4014ad:	85 c0                	test   %eax,%eax
  4014af:	0f 89 71 ff ff ff    	jns    401426 <initialize_target+0x82>
  4014b5:	48 8d b4 24 00 01 00 	lea    0x100(%rsp),%rsi
  4014bc:	00 
  4014bd:	48 8d 3d 9c 2c 00 00 	lea    0x2c9c(%rip),%rdi        # 404160 <_IO_stdin_used+0x160>
  4014c4:	b8 00 00 00 00       	mov    $0x0,%eax
  4014c9:	e8 e2 fb ff ff       	callq  4010b0 <printf@plt>
  4014ce:	bf 08 00 00 00       	mov    $0x8,%edi
  4014d3:	e8 18 fd ff ff       	callq  4011f0 <exit@plt>
  4014d8:	48 89 e6             	mov    %rsp,%rsi
  4014db:	48 8d 3d 3e 2c 00 00 	lea    0x2c3e(%rip),%rdi        # 404120 <_IO_stdin_used+0x120>
  4014e2:	b8 00 00 00 00       	mov    $0x0,%eax
  4014e7:	e8 c4 fb ff ff       	callq  4010b0 <printf@plt>
  4014ec:	bf 08 00 00 00       	mov    $0x8,%edi
  4014f1:	e8 fa fc ff ff       	callq  4011f0 <exit@plt>

00000000004014f6 <main>:
  4014f6:	41 56                	push   %r14
  4014f8:	41 55                	push   %r13
  4014fa:	41 54                	push   %r12
  4014fc:	55                   	push   %rbp
  4014fd:	53                   	push   %rbx
  4014fe:	89 fd                	mov    %edi,%ebp
  401500:	48 89 f3             	mov    %rsi,%rbx
  401503:	48 c7 c6 fa 20 40 00 	mov    $0x4020fa,%rsi
  40150a:	bf 0b 00 00 00       	mov    $0xb,%edi
  40150f:	e8 ec fb ff ff       	callq  401100 <signal@plt>
  401514:	48 c7 c6 a6 20 40 00 	mov    $0x4020a6,%rsi
  40151b:	bf 07 00 00 00       	mov    $0x7,%edi
  401520:	e8 db fb ff ff       	callq  401100 <signal@plt>
  401525:	48 c7 c6 4e 21 40 00 	mov    $0x40214e,%rsi
  40152c:	bf 04 00 00 00       	mov    $0x4,%edi
  401531:	e8 ca fb ff ff       	callq  401100 <signal@plt>
  401536:	83 3d cf 5f 00 00 00 	cmpl   $0x0,0x5fcf(%rip)        # 40750c <is_checker>
  40153d:	75 26                	jne    401565 <main+0x6f>
  40153f:	4c 8d 25 e7 2c 00 00 	lea    0x2ce7(%rip),%r12        # 40422d <_IO_stdin_used+0x22d>
  401546:	48 8b 05 53 5f 00 00 	mov    0x5f53(%rip),%rax        # 4074a0 <stdin@@GLIBC_2.2.5>
  40154d:	48 89 05 9c 5f 00 00 	mov    %rax,0x5f9c(%rip)        # 4074f0 <infile>
  401554:	41 bd 00 00 00 00    	mov    $0x0,%r13d
  40155a:	41 be 00 00 00 00    	mov    $0x0,%r14d
  401560:	e9 88 00 00 00       	jmpq   4015ed <main+0xf7>
  401565:	48 c7 c6 a2 21 40 00 	mov    $0x4021a2,%rsi
  40156c:	bf 0e 00 00 00       	mov    $0xe,%edi
  401571:	e8 8a fb ff ff       	callq  401100 <signal@plt>
  401576:	bf 05 00 00 00       	mov    $0x5,%edi
  40157b:	e8 50 fb ff ff       	callq  4010d0 <alarm@plt>
  401580:	4c 8d 25 9e 2c 00 00 	lea    0x2c9e(%rip),%r12        # 404225 <_IO_stdin_used+0x225>
  401587:	eb bd                	jmp    401546 <main+0x50>
  401589:	48 8b 3b             	mov    (%rbx),%rdi
  40158c:	e8 81 fd ff ff       	callq  401312 <usage>
  401591:	48 8d 35 e2 2e 00 00 	lea    0x2ee2(%rip),%rsi        # 40447a <_IO_stdin_used+0x47a>
  401598:	48 8b 3d 09 5f 00 00 	mov    0x5f09(%rip),%rdi        # 4074a8 <optarg@@GLIBC_2.2.5>
  40159f:	e8 fc fb ff ff       	callq  4011a0 <fopen@plt>
  4015a4:	48 89 05 45 5f 00 00 	mov    %rax,0x5f45(%rip)        # 4074f0 <infile>
  4015ab:	48 85 c0             	test   %rax,%rax
  4015ae:	75 3d                	jne    4015ed <main+0xf7>
  4015b0:	48 8b 15 f1 5e 00 00 	mov    0x5ef1(%rip),%rdx        # 4074a8 <optarg@@GLIBC_2.2.5>
  4015b7:	48 8d 35 74 2c 00 00 	lea    0x2c74(%rip),%rsi        # 404232 <_IO_stdin_used+0x232>
  4015be:	48 8b 3d fb 5e 00 00 	mov    0x5efb(%rip),%rdi        # 4074c0 <stderr@@GLIBC_2.2.5>
  4015c5:	e8 56 fb ff ff       	callq  401120 <fprintf@plt>
  4015ca:	b8 01 00 00 00       	mov    $0x1,%eax
  4015cf:	e9 ce 00 00 00       	jmpq   4016a2 <main+0x1ac>
  4015d4:	ba 10 00 00 00       	mov    $0x10,%edx
  4015d9:	be 00 00 00 00       	mov    $0x0,%esi
  4015de:	48 8b 3d c3 5e 00 00 	mov    0x5ec3(%rip),%rdi        # 4074a8 <optarg@@GLIBC_2.2.5>
  4015e5:	e8 d6 fb ff ff       	callq  4011c0 <strtoul@plt>
  4015ea:	41 89 c6             	mov    %eax,%r14d
  4015ed:	4c 89 e2             	mov    %r12,%rdx
  4015f0:	48 89 de             	mov    %rbx,%rsi
  4015f3:	89 ef                	mov    %ebp,%edi
  4015f5:	e8 b6 fb ff ff       	callq  4011b0 <getopt@plt>
  4015fa:	3c ff                	cmp    $0xff,%al
  4015fc:	74 5d                	je     40165b <main+0x165>
  4015fe:	0f be f0             	movsbl %al,%esi
  401601:	83 e8 61             	sub    $0x61,%eax
  401604:	3c 10                	cmp    $0x10,%al
  401606:	77 3a                	ja     401642 <main+0x14c>
  401608:	0f b6 c0             	movzbl %al,%eax
  40160b:	48 8d 15 5e 2c 00 00 	lea    0x2c5e(%rip),%rdx        # 404270 <_IO_stdin_used+0x270>
  401612:	48 63 04 82          	movslq (%rdx,%rax,4),%rax
  401616:	48 01 d0             	add    %rdx,%rax
  401619:	ff e0                	jmpq   *%rax
  40161b:	ba 0a 00 00 00       	mov    $0xa,%edx
  401620:	be 00 00 00 00       	mov    $0x0,%esi
  401625:	48 8b 3d 7c 5e 00 00 	mov    0x5e7c(%rip),%rdi        # 4074a8 <optarg@@GLIBC_2.2.5>
  40162c:	e8 ff fa ff ff       	callq  401130 <strtol@plt>
  401631:	41 89 c5             	mov    %eax,%r13d
  401634:	eb b7                	jmp    4015ed <main+0xf7>
  401636:	c7 05 b8 5e 00 00 00 	movl   $0x0,0x5eb8(%rip)        # 4074f8 <notify>
  40163d:	00 00 00 
  401640:	eb ab                	jmp    4015ed <main+0xf7>
  401642:	48 8d 3d 06 2c 00 00 	lea    0x2c06(%rip),%rdi        # 40424f <_IO_stdin_used+0x24f>
  401649:	b8 00 00 00 00       	mov    $0x0,%eax
  40164e:	e8 5d fa ff ff       	callq  4010b0 <printf@plt>
  401653:	48 8b 3b             	mov    (%rbx),%rdi
  401656:	e8 b7 fc ff ff       	callq  401312 <usage>
  40165b:	be 01 00 00 00       	mov    $0x1,%esi
  401660:	44 89 ef             	mov    %r13d,%edi
  401663:	e8 3c fd ff ff       	callq  4013a4 <initialize_target>
  401668:	83 3d 9d 5e 00 00 00 	cmpl   $0x0,0x5e9d(%rip)        # 40750c <is_checker>
  40166f:	74 09                	je     40167a <main+0x184>
  401671:	44 39 35 8c 5e 00 00 	cmp    %r14d,0x5e8c(%rip)        # 407504 <authkey>
  401678:	75 31                	jne    4016ab <main+0x1b5>
  40167a:	8b 35 88 5e 00 00    	mov    0x5e88(%rip),%esi        # 407508 <cookie>
  401680:	48 8d 3d db 2b 00 00 	lea    0x2bdb(%rip),%rdi        # 404262 <_IO_stdin_used+0x262>
  401687:	b8 00 00 00 00       	mov    $0x0,%eax
  40168c:	e8 1f fa ff ff       	callq  4010b0 <printf@plt>
  401691:	48 8b 3d e8 5d 00 00 	mov    0x5de8(%rip),%rdi        # 407480 <buf_offset>
  401698:	e8 57 0b 00 00       	callq  4021f4 <launch>
  40169d:	b8 00 00 00 00       	mov    $0x0,%eax
  4016a2:	5b                   	pop    %rbx
  4016a3:	5d                   	pop    %rbp
  4016a4:	41 5c                	pop    %r12
  4016a6:	41 5d                	pop    %r13
  4016a8:	41 5e                	pop    %r14
  4016aa:	c3                   	retq   
  4016ab:	44 89 f6             	mov    %r14d,%esi
  4016ae:	48 8d 3d d3 2a 00 00 	lea    0x2ad3(%rip),%rdi        # 404188 <_IO_stdin_used+0x188>
  4016b5:	b8 00 00 00 00       	mov    $0x0,%eax
  4016ba:	e8 f1 f9 ff ff       	callq  4010b0 <printf@plt>
  4016bf:	b8 00 00 00 00       	mov    $0x0,%eax
  4016c4:	e8 ca 07 00 00       	callq  401e93 <check_fail>
  4016c9:	eb af                	jmp    40167a <main+0x184>

00000000004016cb <scramble>:
  4016cb:	b8 00 00 00 00       	mov    $0x0,%eax
  4016d0:	83 f8 09             	cmp    $0x9,%eax
  4016d3:	77 13                	ja     4016e8 <scramble+0x1d>
  4016d5:	69 d0 22 7f 00 00    	imul   $0x7f22,%eax,%edx
  4016db:	01 fa                	add    %edi,%edx
  4016dd:	89 c1                	mov    %eax,%ecx
  4016df:	89 54 8c d0          	mov    %edx,-0x30(%rsp,%rcx,4)
  4016e3:	83 c0 01             	add    $0x1,%eax
  4016e6:	eb e8                	jmp    4016d0 <scramble+0x5>
  4016e8:	8b 44 24 ec          	mov    -0x14(%rsp),%eax
  4016ec:	69 c0 9b f1 00 00    	imul   $0xf19b,%eax,%eax
  4016f2:	89 44 24 ec          	mov    %eax,-0x14(%rsp)
  4016f6:	8b 44 24 ec          	mov    -0x14(%rsp),%eax
  4016fa:	69 c0 e0 7d 00 00    	imul   $0x7de0,%eax,%eax
  401700:	89 44 24 ec          	mov    %eax,-0x14(%rsp)
  401704:	8b 44 24 e8          	mov    -0x18(%rsp),%eax
  401708:	69 c0 96 e7 00 00    	imul   $0xe796,%eax,%eax
  40170e:	89 44 24 e8          	mov    %eax,-0x18(%rsp)
  401712:	8b 44 24 d4          	mov    -0x2c(%rsp),%eax
  401716:	69 c0 07 e4 00 00    	imul   $0xe407,%eax,%eax
  40171c:	89 44 24 d4          	mov    %eax,-0x2c(%rsp)
  401720:	8b 44 24 dc          	mov    -0x24(%rsp),%eax
  401724:	69 c0 af 51 00 00    	imul   $0x51af,%eax,%eax
  40172a:	89 44 24 dc          	mov    %eax,-0x24(%rsp)
  40172e:	8b 44 24 ec          	mov    -0x14(%rsp),%eax
  401732:	69 c0 4f 0c 00 00    	imul   $0xc4f,%eax,%eax
  401738:	89 44 24 ec          	mov    %eax,-0x14(%rsp)
  40173c:	8b 44 24 f0          	mov    -0x10(%rsp),%eax
  401740:	69 c0 13 1e 00 00    	imul   $0x1e13,%eax,%eax
  401746:	89 44 24 f0          	mov    %eax,-0x10(%rsp)
  40174a:	8b 44 24 d8          	mov    -0x28(%rsp),%eax
  40174e:	69 c0 c5 16 00 00    	imul   $0x16c5,%eax,%eax
  401754:	89 44 24 d8          	mov    %eax,-0x28(%rsp)
  401758:	8b 44 24 d8          	mov    -0x28(%rsp),%eax
  40175c:	69 c0 e4 e5 00 00    	imul   $0xe5e4,%eax,%eax
  401762:	89 44 24 d8          	mov    %eax,-0x28(%rsp)
  401766:	8b 44 24 e8          	mov    -0x18(%rsp),%eax
  40176a:	69 c0 c2 ce 00 00    	imul   $0xcec2,%eax,%eax
  401770:	89 44 24 e8          	mov    %eax,-0x18(%rsp)
  401774:	8b 44 24 f0          	mov    -0x10(%rsp),%eax
  401778:	69 c0 5c 72 00 00    	imul   $0x725c,%eax,%eax
  40177e:	89 44 24 f0          	mov    %eax,-0x10(%rsp)
  401782:	8b 44 24 d8          	mov    -0x28(%rsp),%eax
  401786:	69 c0 fc 76 00 00    	imul   $0x76fc,%eax,%eax
  40178c:	89 44 24 d8          	mov    %eax,-0x28(%rsp)
  401790:	8b 44 24 e0          	mov    -0x20(%rsp),%eax
  401794:	69 c0 2f 3d 00 00    	imul   $0x3d2f,%eax,%eax
  40179a:	89 44 24 e0          	mov    %eax,-0x20(%rsp)
  40179e:	8b 44 24 d8          	mov    -0x28(%rsp),%eax
  4017a2:	69 c0 4d 2c 00 00    	imul   $0x2c4d,%eax,%eax
  4017a8:	89 44 24 d8          	mov    %eax,-0x28(%rsp)
  4017ac:	8b 44 24 e0          	mov    -0x20(%rsp),%eax
  4017b0:	69 c0 f6 a1 00 00    	imul   $0xa1f6,%eax,%eax
  4017b6:	89 44 24 e0          	mov    %eax,-0x20(%rsp)
  4017ba:	8b 44 24 d4          	mov    -0x2c(%rsp),%eax
  4017be:	69 c0 a8 e6 00 00    	imul   $0xe6a8,%eax,%eax
  4017c4:	89 44 24 d4          	mov    %eax,-0x2c(%rsp)
  4017c8:	8b 44 24 d8          	mov    -0x28(%rsp),%eax
  4017cc:	69 c0 c7 f4 00 00    	imul   $0xf4c7,%eax,%eax
  4017d2:	89 44 24 d8          	mov    %eax,-0x28(%rsp)
  4017d6:	8b 44 24 e0          	mov    -0x20(%rsp),%eax
  4017da:	69 c0 f4 25 00 00    	imul   $0x25f4,%eax,%eax
  4017e0:	89 44 24 e0          	mov    %eax,-0x20(%rsp)
  4017e4:	8b 44 24 d0          	mov    -0x30(%rsp),%eax
  4017e8:	69 c0 36 54 00 00    	imul   $0x5436,%eax,%eax
  4017ee:	89 44 24 d0          	mov    %eax,-0x30(%rsp)
  4017f2:	8b 44 24 e4          	mov    -0x1c(%rsp),%eax
  4017f6:	69 c0 bb 5c 00 00    	imul   $0x5cbb,%eax,%eax
  4017fc:	89 44 24 e4          	mov    %eax,-0x1c(%rsp)
  401800:	8b 44 24 e0          	mov    -0x20(%rsp),%eax
  401804:	69 c0 c3 ef 00 00    	imul   $0xefc3,%eax,%eax
  40180a:	89 44 24 e0          	mov    %eax,-0x20(%rsp)
  40180e:	8b 44 24 e0          	mov    -0x20(%rsp),%eax
  401812:	69 c0 ca 21 00 00    	imul   $0x21ca,%eax,%eax
  401818:	89 44 24 e0          	mov    %eax,-0x20(%rsp)
  40181c:	8b 44 24 e8          	mov    -0x18(%rsp),%eax
  401820:	69 c0 ac 5f 00 00    	imul   $0x5fac,%eax,%eax
  401826:	89 44 24 e8          	mov    %eax,-0x18(%rsp)
  40182a:	8b 44 24 d4          	mov    -0x2c(%rsp),%eax
  40182e:	69 c0 06 ff 00 00    	imul   $0xff06,%eax,%eax
  401834:	89 44 24 d4          	mov    %eax,-0x2c(%rsp)
  401838:	8b 44 24 f4          	mov    -0xc(%rsp),%eax
  40183c:	69 c0 ee 2e 00 00    	imul   $0x2eee,%eax,%eax
  401842:	89 44 24 f4          	mov    %eax,-0xc(%rsp)
  401846:	8b 44 24 f0          	mov    -0x10(%rsp),%eax
  40184a:	69 c0 a9 8a 00 00    	imul   $0x8aa9,%eax,%eax
  401850:	89 44 24 f0          	mov    %eax,-0x10(%rsp)
  401854:	8b 44 24 d8          	mov    -0x28(%rsp),%eax
  401858:	69 c0 d9 18 00 00    	imul   $0x18d9,%eax,%eax
  40185e:	89 44 24 d8          	mov    %eax,-0x28(%rsp)
  401862:	8b 44 24 e4          	mov    -0x1c(%rsp),%eax
  401866:	69 c0 9c 0e 00 00    	imul   $0xe9c,%eax,%eax
  40186c:	89 44 24 e4          	mov    %eax,-0x1c(%rsp)
  401870:	8b 44 24 e8          	mov    -0x18(%rsp),%eax
  401874:	69 c0 fa 64 00 00    	imul   $0x64fa,%eax,%eax
  40187a:	89 44 24 e8          	mov    %eax,-0x18(%rsp)
  40187e:	8b 44 24 e0          	mov    -0x20(%rsp),%eax
  401882:	69 c0 8f bd 00 00    	imul   $0xbd8f,%eax,%eax
  401888:	89 44 24 e0          	mov    %eax,-0x20(%rsp)
  40188c:	8b 44 24 d4          	mov    -0x2c(%rsp),%eax
  401890:	69 c0 60 6d 00 00    	imul   $0x6d60,%eax,%eax
  401896:	89 44 24 d4          	mov    %eax,-0x2c(%rsp)
  40189a:	8b 44 24 dc          	mov    -0x24(%rsp),%eax
  40189e:	69 c0 82 9a 00 00    	imul   $0x9a82,%eax,%eax
  4018a4:	89 44 24 dc          	mov    %eax,-0x24(%rsp)
  4018a8:	8b 44 24 e0          	mov    -0x20(%rsp),%eax
  4018ac:	69 c0 bf 08 00 00    	imul   $0x8bf,%eax,%eax
  4018b2:	89 44 24 e0          	mov    %eax,-0x20(%rsp)
  4018b6:	8b 44 24 dc          	mov    -0x24(%rsp),%eax
  4018ba:	69 c0 85 3e 00 00    	imul   $0x3e85,%eax,%eax
  4018c0:	89 44 24 dc          	mov    %eax,-0x24(%rsp)
  4018c4:	8b 44 24 e0          	mov    -0x20(%rsp),%eax
  4018c8:	69 c0 72 ca 00 00    	imul   $0xca72,%eax,%eax
  4018ce:	89 44 24 e0          	mov    %eax,-0x20(%rsp)
  4018d2:	8b 44 24 d4          	mov    -0x2c(%rsp),%eax
  4018d6:	69 c0 da 02 00 00    	imul   $0x2da,%eax,%eax
  4018dc:	89 44 24 d4          	mov    %eax,-0x2c(%rsp)
  4018e0:	8b 44 24 d8          	mov    -0x28(%rsp),%eax
  4018e4:	69 c0 4b 04 00 00    	imul   $0x44b,%eax,%eax
  4018ea:	89 44 24 d8          	mov    %eax,-0x28(%rsp)
  4018ee:	8b 44 24 dc          	mov    -0x24(%rsp),%eax
  4018f2:	69 c0 0b c8 00 00    	imul   $0xc80b,%eax,%eax
  4018f8:	89 44 24 dc          	mov    %eax,-0x24(%rsp)
  4018fc:	8b 44 24 e8          	mov    -0x18(%rsp),%eax
  401900:	69 c0 34 5d 00 00    	imul   $0x5d34,%eax,%eax
  401906:	89 44 24 e8          	mov    %eax,-0x18(%rsp)
  40190a:	8b 44 24 d4          	mov    -0x2c(%rsp),%eax
  40190e:	69 c0 88 a9 00 00    	imul   $0xa988,%eax,%eax
  401914:	89 44 24 d4          	mov    %eax,-0x2c(%rsp)
  401918:	8b 44 24 e0          	mov    -0x20(%rsp),%eax
  40191c:	69 c0 db 94 00 00    	imul   $0x94db,%eax,%eax
  401922:	89 44 24 e0          	mov    %eax,-0x20(%rsp)
  401926:	8b 44 24 d8          	mov    -0x28(%rsp),%eax
  40192a:	69 c0 6d 2d 00 00    	imul   $0x2d6d,%eax,%eax
  401930:	89 44 24 d8          	mov    %eax,-0x28(%rsp)
  401934:	8b 44 24 d0          	mov    -0x30(%rsp),%eax
  401938:	69 c0 d8 35 00 00    	imul   $0x35d8,%eax,%eax
  40193e:	89 44 24 d0          	mov    %eax,-0x30(%rsp)
  401942:	8b 44 24 e8          	mov    -0x18(%rsp),%eax
  401946:	69 c0 bd 03 00 00    	imul   $0x3bd,%eax,%eax
  40194c:	89 44 24 e8          	mov    %eax,-0x18(%rsp)
  401950:	8b 44 24 f0          	mov    -0x10(%rsp),%eax
  401954:	69 c0 f4 76 00 00    	imul   $0x76f4,%eax,%eax
  40195a:	89 44 24 f0          	mov    %eax,-0x10(%rsp)
  40195e:	8b 44 24 f0          	mov    -0x10(%rsp),%eax
  401962:	69 c0 c2 a1 00 00    	imul   $0xa1c2,%eax,%eax
  401968:	89 44 24 f0          	mov    %eax,-0x10(%rsp)
  40196c:	8b 44 24 e8          	mov    -0x18(%rsp),%eax
  401970:	69 c0 83 65 00 00    	imul   $0x6583,%eax,%eax
  401976:	89 44 24 e8          	mov    %eax,-0x18(%rsp)
  40197a:	8b 44 24 e0          	mov    -0x20(%rsp),%eax
  40197e:	69 c0 7b 46 00 00    	imul   $0x467b,%eax,%eax
  401984:	89 44 24 e0          	mov    %eax,-0x20(%rsp)
  401988:	8b 44 24 d4          	mov    -0x2c(%rsp),%eax
  40198c:	69 c0 bb fc 00 00    	imul   $0xfcbb,%eax,%eax
  401992:	89 44 24 d4          	mov    %eax,-0x2c(%rsp)
  401996:	8b 44 24 d4          	mov    -0x2c(%rsp),%eax
  40199a:	69 c0 37 cb 00 00    	imul   $0xcb37,%eax,%eax
  4019a0:	89 44 24 d4          	mov    %eax,-0x2c(%rsp)
  4019a4:	8b 44 24 ec          	mov    -0x14(%rsp),%eax
  4019a8:	69 c0 41 20 00 00    	imul   $0x2041,%eax,%eax
  4019ae:	89 44 24 ec          	mov    %eax,-0x14(%rsp)
  4019b2:	8b 44 24 e8          	mov    -0x18(%rsp),%eax
  4019b6:	69 c0 63 81 00 00    	imul   $0x8163,%eax,%eax
  4019bc:	89 44 24 e8          	mov    %eax,-0x18(%rsp)
  4019c0:	8b 44 24 d8          	mov    -0x28(%rsp),%eax
  4019c4:	69 c0 b6 f2 00 00    	imul   $0xf2b6,%eax,%eax
  4019ca:	89 44 24 d8          	mov    %eax,-0x28(%rsp)
  4019ce:	8b 44 24 d8          	mov    -0x28(%rsp),%eax
  4019d2:	69 c0 84 88 00 00    	imul   $0x8884,%eax,%eax
  4019d8:	89 44 24 d8          	mov    %eax,-0x28(%rsp)
  4019dc:	8b 44 24 f0          	mov    -0x10(%rsp),%eax
  4019e0:	69 c0 80 10 00 00    	imul   $0x1080,%eax,%eax
  4019e6:	89 44 24 f0          	mov    %eax,-0x10(%rsp)
  4019ea:	8b 44 24 dc          	mov    -0x24(%rsp),%eax
  4019ee:	69 c0 0d dc 00 00    	imul   $0xdc0d,%eax,%eax
  4019f4:	89 44 24 dc          	mov    %eax,-0x24(%rsp)
  4019f8:	8b 44 24 e4          	mov    -0x1c(%rsp),%eax
  4019fc:	69 c0 3e 66 00 00    	imul   $0x663e,%eax,%eax
  401a02:	89 44 24 e4          	mov    %eax,-0x1c(%rsp)
  401a06:	8b 44 24 d0          	mov    -0x30(%rsp),%eax
  401a0a:	69 c0 10 53 00 00    	imul   $0x5310,%eax,%eax
  401a10:	89 44 24 d0          	mov    %eax,-0x30(%rsp)
  401a14:	8b 44 24 ec          	mov    -0x14(%rsp),%eax
  401a18:	69 c0 85 45 00 00    	imul   $0x4585,%eax,%eax
  401a1e:	89 44 24 ec          	mov    %eax,-0x14(%rsp)
  401a22:	8b 44 24 dc          	mov    -0x24(%rsp),%eax
  401a26:	69 c0 e8 36 00 00    	imul   $0x36e8,%eax,%eax
  401a2c:	89 44 24 dc          	mov    %eax,-0x24(%rsp)
  401a30:	8b 44 24 f4          	mov    -0xc(%rsp),%eax
  401a34:	69 c0 1a 18 00 00    	imul   $0x181a,%eax,%eax
  401a3a:	89 44 24 f4          	mov    %eax,-0xc(%rsp)
  401a3e:	8b 44 24 e4          	mov    -0x1c(%rsp),%eax
  401a42:	69 c0 cd a0 00 00    	imul   $0xa0cd,%eax,%eax
  401a48:	89 44 24 e4          	mov    %eax,-0x1c(%rsp)
  401a4c:	8b 44 24 e0          	mov    -0x20(%rsp),%eax
  401a50:	69 c0 ef 14 00 00    	imul   $0x14ef,%eax,%eax
  401a56:	89 44 24 e0          	mov    %eax,-0x20(%rsp)
  401a5a:	8b 44 24 d0          	mov    -0x30(%rsp),%eax
  401a5e:	69 c0 e0 eb 00 00    	imul   $0xebe0,%eax,%eax
  401a64:	89 44 24 d0          	mov    %eax,-0x30(%rsp)
  401a68:	8b 44 24 f4          	mov    -0xc(%rsp),%eax
  401a6c:	69 c0 49 6c 00 00    	imul   $0x6c49,%eax,%eax
  401a72:	89 44 24 f4          	mov    %eax,-0xc(%rsp)
  401a76:	8b 44 24 e4          	mov    -0x1c(%rsp),%eax
  401a7a:	69 c0 d8 d8 00 00    	imul   $0xd8d8,%eax,%eax
  401a80:	89 44 24 e4          	mov    %eax,-0x1c(%rsp)
  401a84:	8b 44 24 ec          	mov    -0x14(%rsp),%eax
  401a88:	69 c0 29 85 00 00    	imul   $0x8529,%eax,%eax
  401a8e:	89 44 24 ec          	mov    %eax,-0x14(%rsp)
  401a92:	8b 44 24 d4          	mov    -0x2c(%rsp),%eax
  401a96:	69 c0 17 b1 00 00    	imul   $0xb117,%eax,%eax
  401a9c:	89 44 24 d4          	mov    %eax,-0x2c(%rsp)
  401aa0:	8b 44 24 ec          	mov    -0x14(%rsp),%eax
  401aa4:	69 c0 a9 a3 00 00    	imul   $0xa3a9,%eax,%eax
  401aaa:	89 44 24 ec          	mov    %eax,-0x14(%rsp)
  401aae:	8b 44 24 f0          	mov    -0x10(%rsp),%eax
  401ab2:	69 c0 c9 c7 00 00    	imul   $0xc7c9,%eax,%eax
  401ab8:	89 44 24 f0          	mov    %eax,-0x10(%rsp)
  401abc:	8b 44 24 d4          	mov    -0x2c(%rsp),%eax
  401ac0:	69 c0 a8 6b 00 00    	imul   $0x6ba8,%eax,%eax
  401ac6:	89 44 24 d4          	mov    %eax,-0x2c(%rsp)
  401aca:	8b 44 24 d0          	mov    -0x30(%rsp),%eax
  401ace:	69 c0 85 59 00 00    	imul   $0x5985,%eax,%eax
  401ad4:	89 44 24 d0          	mov    %eax,-0x30(%rsp)
  401ad8:	8b 44 24 d4          	mov    -0x2c(%rsp),%eax
  401adc:	69 c0 52 ad 00 00    	imul   $0xad52,%eax,%eax
  401ae2:	89 44 24 d4          	mov    %eax,-0x2c(%rsp)
  401ae6:	8b 44 24 dc          	mov    -0x24(%rsp),%eax
  401aea:	69 c0 fd 6d 00 00    	imul   $0x6dfd,%eax,%eax
  401af0:	89 44 24 dc          	mov    %eax,-0x24(%rsp)
  401af4:	8b 44 24 d4          	mov    -0x2c(%rsp),%eax
  401af8:	69 c0 63 03 00 00    	imul   $0x363,%eax,%eax
  401afe:	89 44 24 d4          	mov    %eax,-0x2c(%rsp)
  401b02:	8b 44 24 ec          	mov    -0x14(%rsp),%eax
  401b06:	69 c0 50 af 00 00    	imul   $0xaf50,%eax,%eax
  401b0c:	89 44 24 ec          	mov    %eax,-0x14(%rsp)
  401b10:	8b 44 24 f4          	mov    -0xc(%rsp),%eax
  401b14:	69 c0 90 7d 00 00    	imul   $0x7d90,%eax,%eax
  401b1a:	89 44 24 f4          	mov    %eax,-0xc(%rsp)
  401b1e:	8b 44 24 d0          	mov    -0x30(%rsp),%eax
  401b22:	69 c0 1a 99 00 00    	imul   $0x991a,%eax,%eax
  401b28:	89 44 24 d0          	mov    %eax,-0x30(%rsp)
  401b2c:	8b 44 24 e0          	mov    -0x20(%rsp),%eax
  401b30:	69 c0 65 37 00 00    	imul   $0x3765,%eax,%eax
  401b36:	89 44 24 e0          	mov    %eax,-0x20(%rsp)
  401b3a:	ba 00 00 00 00       	mov    $0x0,%edx
  401b3f:	b8 00 00 00 00       	mov    $0x0,%eax
  401b44:	83 fa 09             	cmp    $0x9,%edx
  401b47:	77 0d                	ja     401b56 <scramble+0x48b>
  401b49:	89 d1                	mov    %edx,%ecx
  401b4b:	8b 4c 8c d0          	mov    -0x30(%rsp,%rcx,4),%ecx
  401b4f:	01 c8                	add    %ecx,%eax
  401b51:	83 c2 01             	add    $0x1,%edx
  401b54:	eb ee                	jmp    401b44 <scramble+0x479>
  401b56:	c3                   	retq   

0000000000401b57 <getbuf>:
  401b57:	48 83 ec 28          	sub    $0x28,%rsp
  401b5b:	48 89 e7             	mov    %rsp,%rdi
  401b5e:	e8 63 03 00 00       	callq  401ec6 <Gets>
  401b63:	b8 01 00 00 00       	mov    $0x1,%eax
  401b68:	48 83 c4 28          	add    $0x28,%rsp
  401b6c:	c3                   	retq   

0000000000401b6d <touch1>:
  401b6d:	48 83 ec 08          	sub    $0x8,%rsp
  401b71:	c7 05 85 59 00 00 01 	movl   $0x1,0x5985(%rip)        # 407500 <vlevel>
  401b78:	00 00 00 
  401b7b:	48 8d 3d 9c 27 00 00 	lea    0x279c(%rip),%rdi        # 40431e <_IO_stdin_used+0x31e>
  401b82:	e8 f9 f4 ff ff       	callq  401080 <puts@plt>
  401b87:	bf 01 00 00 00       	mov    $0x1,%edi
  401b8c:	e8 2f 04 00 00       	callq  401fc0 <validate>
  401b91:	bf 00 00 00 00       	mov    $0x0,%edi
  401b96:	e8 55 f6 ff ff       	callq  4011f0 <exit@plt>

0000000000401b9b <touch2>:
  401b9b:	48 83 ec 08          	sub    $0x8,%rsp
  401b9f:	89 fe                	mov    %edi,%esi
  401ba1:	c7 05 55 59 00 00 02 	movl   $0x2,0x5955(%rip)        # 407500 <vlevel>
  401ba8:	00 00 00 
  401bab:	39 3d 57 59 00 00    	cmp    %edi,0x5957(%rip)        # 407508 <cookie>
  401bb1:	74 25                	je     401bd8 <touch2+0x3d>
  401bb3:	48 8d 3d ae 27 00 00 	lea    0x27ae(%rip),%rdi        # 404368 <_IO_stdin_used+0x368>
  401bba:	b8 00 00 00 00       	mov    $0x0,%eax
  401bbf:	e8 ec f4 ff ff       	callq  4010b0 <printf@plt>
  401bc4:	bf 02 00 00 00       	mov    $0x2,%edi
  401bc9:	e8 b0 04 00 00       	callq  40207e <fail>
  401bce:	bf 00 00 00 00       	mov    $0x0,%edi
  401bd3:	e8 18 f6 ff ff       	callq  4011f0 <exit@plt>
  401bd8:	48 8d 3d 61 27 00 00 	lea    0x2761(%rip),%rdi        # 404340 <_IO_stdin_used+0x340>
  401bdf:	b8 00 00 00 00       	mov    $0x0,%eax
  401be4:	e8 c7 f4 ff ff       	callq  4010b0 <printf@plt>
  401be9:	bf 02 00 00 00       	mov    $0x2,%edi
  401bee:	e8 cd 03 00 00       	callq  401fc0 <validate>
  401bf3:	eb d9                	jmp    401bce <touch2+0x33>

0000000000401bf5 <hexmatch>:
  401bf5:	41 54                	push   %r12
  401bf7:	55                   	push   %rbp
  401bf8:	53                   	push   %rbx
  401bf9:	48 83 ec 70          	sub    $0x70,%rsp
  401bfd:	89 fd                	mov    %edi,%ebp
  401bff:	48 89 f3             	mov    %rsi,%rbx
  401c02:	e8 59 f5 ff ff       	callq  401160 <random@plt>
  401c07:	48 89 c1             	mov    %rax,%rcx
  401c0a:	48 ba 0b d7 a3 70 3d 	movabs $0xa3d70a3d70a3d70b,%rdx
  401c11:	0a d7 a3 
  401c14:	48 f7 ea             	imul   %rdx
  401c17:	48 01 ca             	add    %rcx,%rdx
  401c1a:	48 c1 fa 06          	sar    $0x6,%rdx
  401c1e:	48 89 c8             	mov    %rcx,%rax
  401c21:	48 c1 f8 3f          	sar    $0x3f,%rax
  401c25:	48 29 c2             	sub    %rax,%rdx
  401c28:	48 8d 04 92          	lea    (%rdx,%rdx,4),%rax
  401c2c:	48 8d 14 80          	lea    (%rax,%rax,4),%rdx
  401c30:	48 8d 04 95 00 00 00 	lea    0x0(,%rdx,4),%rax
  401c37:	00 
  401c38:	48 29 c1             	sub    %rax,%rcx
  401c3b:	4c 8d 24 0c          	lea    (%rsp,%rcx,1),%r12
  401c3f:	89 ea                	mov    %ebp,%edx
  401c41:	48 8d 35 f3 26 00 00 	lea    0x26f3(%rip),%rsi        # 40433b <_IO_stdin_used+0x33b>
  401c48:	4c 89 e7             	mov    %r12,%rdi
  401c4b:	b8 00 00 00 00       	mov    $0x0,%eax
  401c50:	e8 8b f5 ff ff       	callq  4011e0 <sprintf@plt>
  401c55:	ba 09 00 00 00       	mov    $0x9,%edx
  401c5a:	4c 89 e6             	mov    %r12,%rsi
  401c5d:	48 89 df             	mov    %rbx,%rdi
  401c60:	e8 fb f3 ff ff       	callq  401060 <strncmp@plt>
  401c65:	85 c0                	test   %eax,%eax
  401c67:	0f 94 c0             	sete   %al
  401c6a:	0f b6 c0             	movzbl %al,%eax
  401c6d:	48 83 c4 70          	add    $0x70,%rsp
  401c71:	5b                   	pop    %rbx
  401c72:	5d                   	pop    %rbp
  401c73:	41 5c                	pop    %r12
  401c75:	c3                   	retq   

0000000000401c76 <touch3>:
  401c76:	53                   	push   %rbx
  401c77:	48 89 fb             	mov    %rdi,%rbx
  401c7a:	c7 05 7c 58 00 00 03 	movl   $0x3,0x587c(%rip)        # 407500 <vlevel>
  401c81:	00 00 00 
  401c84:	48 89 fe             	mov    %rdi,%rsi
  401c87:	8b 3d 7b 58 00 00    	mov    0x587b(%rip),%edi        # 407508 <cookie>
  401c8d:	e8 63 ff ff ff       	callq  401bf5 <hexmatch>
  401c92:	85 c0                	test   %eax,%eax
  401c94:	74 28                	je     401cbe <touch3+0x48>
  401c96:	48 89 de             	mov    %rbx,%rsi
  401c99:	48 8d 3d f0 26 00 00 	lea    0x26f0(%rip),%rdi        # 404390 <_IO_stdin_used+0x390>
  401ca0:	b8 00 00 00 00       	mov    $0x0,%eax
  401ca5:	e8 06 f4 ff ff       	callq  4010b0 <printf@plt>
  401caa:	bf 03 00 00 00       	mov    $0x3,%edi
  401caf:	e8 0c 03 00 00       	callq  401fc0 <validate>
  401cb4:	bf 00 00 00 00       	mov    $0x0,%edi
  401cb9:	e8 32 f5 ff ff       	callq  4011f0 <exit@plt>
  401cbe:	48 89 de             	mov    %rbx,%rsi
  401cc1:	48 8d 3d f0 26 00 00 	lea    0x26f0(%rip),%rdi        # 4043b8 <_IO_stdin_used+0x3b8>
  401cc8:	b8 00 00 00 00       	mov    $0x0,%eax
  401ccd:	e8 de f3 ff ff       	callq  4010b0 <printf@plt>
  401cd2:	bf 03 00 00 00       	mov    $0x3,%edi
  401cd7:	e8 a2 03 00 00       	callq  40207e <fail>
  401cdc:	eb d6                	jmp    401cb4 <touch3+0x3e>

0000000000401cde <test>:
  401cde:	48 83 ec 08          	sub    $0x8,%rsp
  401ce2:	b8 00 00 00 00       	mov    $0x0,%eax
  401ce7:	e8 6b fe ff ff       	callq  401b57 <getbuf>
  401cec:	89 c6                	mov    %eax,%esi
  401cee:	48 8d 3d eb 26 00 00 	lea    0x26eb(%rip),%rdi        # 4043e0 <_IO_stdin_used+0x3e0>
  401cf5:	b8 00 00 00 00       	mov    $0x0,%eax
  401cfa:	e8 b1 f3 ff ff       	callq  4010b0 <printf@plt>
  401cff:	48 83 c4 08          	add    $0x8,%rsp
  401d03:	c3                   	retq   

0000000000401d04 <start_farm>:
  401d04:	b8 01 00 00 00       	mov    $0x1,%eax
  401d09:	c3                   	retq   

0000000000401d0a <addval_119>:
  401d0a:	8d 87 48 89 c7 c2    	lea    -0x3d3876b8(%rdi),%eax
  401d10:	c3                   	retq   

0000000000401d11 <addval_280>:
  401d11:	8d 87 58 90 c3 a4    	lea    -0x5b3c6fa8(%rdi),%eax
  401d17:	c3                   	retq   

0000000000401d18 <setval_408>:
  401d18:	c7 07 c7 58 c2 b7    	movl   $0xb7c258c7,(%rdi)
  401d1e:	c3                   	retq   

0000000000401d1f <addval_175>:
  401d1f:	8d 87 73 48 89 c7    	lea    -0x3876b78d(%rdi),%eax
  401d25:	c3                   	retq   

0000000000401d26 <getval_349>:
  401d26:	b8 48 89 c7 c3       	mov    $0xc3c78948,%eax
  401d2b:	c3                   	retq   

0000000000401d2c <getval_216>:
  401d2c:	b8 e2 08 89 c7       	mov    $0xc78908e2,%eax
  401d31:	c3                   	retq   

0000000000401d32 <setval_161>:
  401d32:	c7 07 58 c3 6f 71    	movl   $0x716fc358,(%rdi)
  401d38:	c3                   	retq   

0000000000401d39 <addval_180>:
  401d39:	8d 87 92 5f 48 c3    	lea    -0x3cb7a06e(%rdi),%eax
  401d3f:	c3                   	retq   

0000000000401d40 <mid_farm>:
  401d40:	b8 01 00 00 00       	mov    $0x1,%eax
  401d45:	c3                   	retq   

0000000000401d46 <add_xy>:
  401d46:	48 8d 04 37          	lea    (%rdi,%rsi,1),%rax
  401d4a:	c3                   	retq   

0000000000401d4b <addval_238>:
  401d4b:	8d 87 89 d1 08 c9    	lea    -0x36f72e77(%rdi),%eax
  401d51:	c3                   	retq   

0000000000401d52 <getval_162>:
  401d52:	b8 5e 89 ce 90       	mov    $0x90ce895e,%eax
  401d57:	c3                   	retq   

0000000000401d58 <getval_150>:
  401d58:	b8 09 d1 20 d2       	mov    $0xd220d109,%eax
  401d5d:	c3                   	retq   

0000000000401d5e <setval_494>:
  401d5e:	c7 07 d1 47 88 c2    	movl   $0xc28847d1,(%rdi)
  401d64:	c3                   	retq   

0000000000401d65 <setval_116>:
  401d65:	c7 07 89 ce 90 c3    	movl   $0xc390ce89,(%rdi)
  401d6b:	c3                   	retq   

0000000000401d6c <addval_471>:
  401d6c:	8d 87 89 d1 90 c3    	lea    -0x3c6f2e77(%rdi),%eax
  401d72:	c3                   	retq   

0000000000401d73 <setval_189>:
  401d73:	c7 07 89 ce 60 c9    	movl   $0xc960ce89,(%rdi)
  401d79:	c3                   	retq   

0000000000401d7a <addval_484>:
  401d7a:	8d 87 89 c2 30 c9    	lea    -0x36cf3d77(%rdi),%eax
  401d80:	c3                   	retq   

0000000000401d81 <getval_100>:
  401d81:	b8 89 d1 00 c0       	mov    $0xc000d189,%eax
  401d86:	c3                   	retq   

0000000000401d87 <setval_479>:
  401d87:	c7 07 4a 89 e0 c3    	movl   $0xc3e0894a,(%rdi)
  401d8d:	c3                   	retq   

0000000000401d8e <getval_402>:
  401d8e:	b8 48 89 e0 c7       	mov    $0xc7e08948,%eax
  401d93:	c3                   	retq   

0000000000401d94 <getval_334>:
  401d94:	b8 09 c2 38 db       	mov    $0xdb38c209,%eax
  401d99:	c3                   	retq   

0000000000401d9a <getval_495>:
  401d9a:	b8 81 d1 38 d2       	mov    $0xd238d181,%eax
  401d9f:	c3                   	retq   

0000000000401da0 <setval_176>:
  401da0:	c7 07 89 d1 48 c0    	movl   $0xc048d189,(%rdi)
  401da6:	c3                   	retq   

0000000000401da7 <setval_110>:
  401da7:	c7 07 80 89 c2 91    	movl   $0x91c28980,(%rdi)
  401dad:	c3                   	retq   

0000000000401dae <setval_149>:
  401dae:	c7 07 c9 d1 38 db    	movl   $0xdb38d1c9,(%rdi)
  401db4:	c3                   	retq   

0000000000401db5 <getval_410>:
  401db5:	b8 89 c2 90 90       	mov    $0x9090c289,%eax
  401dba:	c3                   	retq   

0000000000401dbb <addval_413>:
  401dbb:	8d 87 48 89 e0 92    	lea    -0x6d1f76b8(%rdi),%eax
  401dc1:	c3                   	retq   

0000000000401dc2 <getval_486>:
  401dc2:	b8 48 c9 e0 90       	mov    $0x90e0c948,%eax
  401dc7:	c3                   	retq   

0000000000401dc8 <getval_403>:
  401dc8:	b8 89 ce 90 c2       	mov    $0xc290ce89,%eax
  401dcd:	c3                   	retq   

0000000000401dce <setval_278>:
  401dce:	c7 07 4f 89 d1 92    	movl   $0x92d1894f,(%rdi)
  401dd4:	c3                   	retq   

0000000000401dd5 <addval_219>:
  401dd5:	8d 87 89 c2 20 db    	lea    -0x24df3d77(%rdi),%eax
  401ddb:	c3                   	retq   

0000000000401ddc <addval_283>:
  401ddc:	8d 87 48 89 e0 92    	lea    -0x6d1f76b8(%rdi),%eax
  401de2:	c3                   	retq   

0000000000401de3 <addval_342>:
  401de3:	8d 87 8d ce c3 0e    	lea    0xec3ce8d(%rdi),%eax
  401de9:	c3                   	retq   

0000000000401dea <setval_354>:
  401dea:	c7 07 81 c2 84 c0    	movl   $0xc084c281,(%rdi)
  401df0:	c3                   	retq   

0000000000401df1 <getval_113>:
  401df1:	b8 09 ce 38 d2       	mov    $0xd238ce09,%eax
  401df6:	c3                   	retq   

0000000000401df7 <setval_288>:
  401df7:	c7 07 89 c2 48 db    	movl   $0xdb48c289,(%rdi)
  401dfd:	c3                   	retq   

0000000000401dfe <addval_380>:
  401dfe:	8d 87 01 48 89 e0    	lea    -0x1f76b7ff(%rdi),%eax
  401e04:	c3                   	retq   

0000000000401e05 <setval_303>:
  401e05:	c7 07 48 81 e0 c3    	movl   $0xc3e08148,(%rdi)
  401e0b:	c3                   	retq   

0000000000401e0c <getval_209>:
  401e0c:	b8 99 ce c3 78       	mov    $0x78c3ce99,%eax
  401e11:	c3                   	retq   

0000000000401e12 <getval_107>:
  401e12:	b8 48 89 e0 c3       	mov    $0xc3e08948,%eax
  401e17:	c3                   	retq   

0000000000401e18 <getval_367>:
  401e18:	b8 89 ce 94 90       	mov    $0x9094ce89,%eax
  401e1d:	c3                   	retq   

0000000000401e1e <end_farm>:
  401e1e:	b8 01 00 00 00       	mov    $0x1,%eax
  401e23:	c3                   	retq   

0000000000401e24 <save_char>:
  401e24:	8b 05 fa 62 00 00    	mov    0x62fa(%rip),%eax        # 408124 <gets_cnt>
  401e2a:	3d ff 03 00 00       	cmp    $0x3ff,%eax
  401e2f:	7f 4a                	jg     401e7b <save_char+0x57>
  401e31:	89 f9                	mov    %edi,%ecx
  401e33:	c0 e9 04             	shr    $0x4,%cl
  401e36:	8d 14 40             	lea    (%rax,%rax,2),%edx
  401e39:	4c 8d 05 10 28 00 00 	lea    0x2810(%rip),%r8        # 404650 <trans_char>
  401e40:	83 e1 0f             	and    $0xf,%ecx
  401e43:	45 0f b6 0c 08       	movzbl (%r8,%rcx,1),%r9d
  401e48:	48 8d 0d d1 56 00 00 	lea    0x56d1(%rip),%rcx        # 407520 <gets_buf>
  401e4f:	48 63 f2             	movslq %edx,%rsi
  401e52:	44 88 0c 31          	mov    %r9b,(%rcx,%rsi,1)
  401e56:	8d 72 01             	lea    0x1(%rdx),%esi
  401e59:	83 e7 0f             	and    $0xf,%edi
  401e5c:	41 0f b6 3c 38       	movzbl (%r8,%rdi,1),%edi
  401e61:	48 63 f6             	movslq %esi,%rsi
  401e64:	40 88 3c 31          	mov    %dil,(%rcx,%rsi,1)
  401e68:	83 c2 02             	add    $0x2,%edx
  401e6b:	48 63 d2             	movslq %edx,%rdx
  401e6e:	c6 04 11 20          	movb   $0x20,(%rcx,%rdx,1)
  401e72:	83 c0 01             	add    $0x1,%eax
  401e75:	89 05 a9 62 00 00    	mov    %eax,0x62a9(%rip)        # 408124 <gets_cnt>
  401e7b:	c3                   	retq   

0000000000401e7c <save_term>:
  401e7c:	8b 05 a2 62 00 00    	mov    0x62a2(%rip),%eax        # 408124 <gets_cnt>
  401e82:	8d 04 40             	lea    (%rax,%rax,2),%eax
  401e85:	48 98                	cltq   
  401e87:	48 8d 15 92 56 00 00 	lea    0x5692(%rip),%rdx        # 407520 <gets_buf>
  401e8e:	c6 04 02 00          	movb   $0x0,(%rdx,%rax,1)
  401e92:	c3                   	retq   

0000000000401e93 <check_fail>:
  401e93:	48 83 ec 08          	sub    $0x8,%rsp
  401e97:	0f be 35 8a 62 00 00 	movsbl 0x628a(%rip),%esi        # 408128 <target_prefix>
  401e9e:	48 8d 0d 7b 56 00 00 	lea    0x567b(%rip),%rcx        # 407520 <gets_buf>
  401ea5:	8b 15 51 56 00 00    	mov    0x5651(%rip),%edx        # 4074fc <check_level>
  401eab:	48 8d 3d 51 25 00 00 	lea    0x2551(%rip),%rdi        # 404403 <_IO_stdin_used+0x403>
  401eb2:	b8 00 00 00 00       	mov    $0x0,%eax
  401eb7:	e8 f4 f1 ff ff       	callq  4010b0 <printf@plt>
  401ebc:	bf 01 00 00 00       	mov    $0x1,%edi
  401ec1:	e8 2a f3 ff ff       	callq  4011f0 <exit@plt>

0000000000401ec6 <Gets>:
  401ec6:	41 54                	push   %r12
  401ec8:	55                   	push   %rbp
  401ec9:	53                   	push   %rbx
  401eca:	49 89 fc             	mov    %rdi,%r12
  401ecd:	c7 05 4d 62 00 00 00 	movl   $0x0,0x624d(%rip)        # 408124 <gets_cnt>
  401ed4:	00 00 00 
  401ed7:	48 89 fb             	mov    %rdi,%rbx
  401eda:	48 8b 3d 0f 56 00 00 	mov    0x560f(%rip),%rdi        # 4074f0 <infile>
  401ee1:	e8 2a f3 ff ff       	callq  401210 <getc@plt>
  401ee6:	83 f8 ff             	cmp    $0xffffffff,%eax
  401ee9:	74 18                	je     401f03 <Gets+0x3d>
  401eeb:	83 f8 0a             	cmp    $0xa,%eax
  401eee:	74 13                	je     401f03 <Gets+0x3d>
  401ef0:	48 8d 6b 01          	lea    0x1(%rbx),%rbp
  401ef4:	88 03                	mov    %al,(%rbx)
  401ef6:	0f b6 f8             	movzbl %al,%edi
  401ef9:	e8 26 ff ff ff       	callq  401e24 <save_char>
  401efe:	48 89 eb             	mov    %rbp,%rbx
  401f01:	eb d7                	jmp    401eda <Gets+0x14>
  401f03:	c6 03 00             	movb   $0x0,(%rbx)
  401f06:	b8 00 00 00 00       	mov    $0x0,%eax
  401f0b:	e8 6c ff ff ff       	callq  401e7c <save_term>
  401f10:	4c 89 e0             	mov    %r12,%rax
  401f13:	5b                   	pop    %rbx
  401f14:	5d                   	pop    %rbp
  401f15:	41 5c                	pop    %r12
  401f17:	c3                   	retq   

0000000000401f18 <notify_server>:
  401f18:	83 3d ed 55 00 00 00 	cmpl   $0x0,0x55ed(%rip)        # 40750c <is_checker>
  401f1f:	0f 85 9a 00 00 00    	jne    401fbf <notify_server+0xa7>
  401f25:	53                   	push   %rbx
  401f26:	48 81 ec 00 20 00 00 	sub    $0x2000,%rsp
  401f2d:	81 3d ed 61 00 00 9c 	cmpl   $0x1f9c,0x61ed(%rip)        # 408124 <gets_cnt>
  401f34:	1f 00 00 
  401f37:	7f 5a                	jg     401f93 <notify_server+0x7b>
  401f39:	44 0f be 0d e7 61 00 	movsbl 0x61e7(%rip),%r9d        # 408128 <target_prefix>
  401f40:	00 
  401f41:	83 3d b0 55 00 00 00 	cmpl   $0x0,0x55b0(%rip)        # 4074f8 <notify>
  401f48:	74 64                	je     401fae <notify_server+0x96>
  401f4a:	44 8b 05 b3 55 00 00 	mov    0x55b3(%rip),%r8d        # 407504 <authkey>
  401f51:	85 ff                	test   %edi,%edi
  401f53:	74 61                	je     401fb6 <notify_server+0x9e>
  401f55:	48 8d 1d c2 24 00 00 	lea    0x24c2(%rip),%rbx        # 40441e <_IO_stdin_used+0x41e>
  401f5c:	48 89 e7             	mov    %rsp,%rdi
  401f5f:	48 8d 05 ba 55 00 00 	lea    0x55ba(%rip),%rax        # 407520 <gets_buf>
  401f66:	50                   	push   %rax
  401f67:	56                   	push   %rsi
  401f68:	48 89 d9             	mov    %rbx,%rcx
  401f6b:	8b 15 bf 51 00 00    	mov    0x51bf(%rip),%edx        # 407130 <target_id>
  401f71:	48 8d 35 ab 24 00 00 	lea    0x24ab(%rip),%rsi        # 404423 <_IO_stdin_used+0x423>
  401f78:	b8 00 00 00 00       	mov    $0x0,%eax
  401f7d:	e8 5e f2 ff ff       	callq  4011e0 <sprintf@plt>
  401f82:	48 89 df             	mov    %rbx,%rdi
  401f85:	e8 f6 f0 ff ff       	callq  401080 <puts@plt>
  401f8a:	48 81 c4 10 20 00 00 	add    $0x2010,%rsp
  401f91:	5b                   	pop    %rbx
  401f92:	c3                   	retq   
  401f93:	48 8d 3d 4e 25 00 00 	lea    0x254e(%rip),%rdi        # 4044e8 <_IO_stdin_used+0x4e8>
  401f9a:	b8 00 00 00 00       	mov    $0x0,%eax
  401f9f:	e8 0c f1 ff ff       	callq  4010b0 <printf@plt>
  401fa4:	bf 01 00 00 00       	mov    $0x1,%edi
  401fa9:	e8 42 f2 ff ff       	callq  4011f0 <exit@plt>
  401fae:	41 b8 ff ff ff ff    	mov    $0xffffffff,%r8d
  401fb4:	eb 9b                	jmp    401f51 <notify_server+0x39>
  401fb6:	48 8d 1d 5c 24 00 00 	lea    0x245c(%rip),%rbx        # 404419 <_IO_stdin_used+0x419>
  401fbd:	eb 9d                	jmp    401f5c <notify_server+0x44>
  401fbf:	c3                   	retq   

0000000000401fc0 <validate>:
  401fc0:	53                   	push   %rbx
  401fc1:	89 fb                	mov    %edi,%ebx
  401fc3:	83 3d 42 55 00 00 00 	cmpl   $0x0,0x5542(%rip)        # 40750c <is_checker>
  401fca:	74 68                	je     402034 <validate+0x74>
  401fcc:	39 3d 2e 55 00 00    	cmp    %edi,0x552e(%rip)        # 407500 <vlevel>
  401fd2:	75 2d                	jne    402001 <validate+0x41>
  401fd4:	8b 35 22 55 00 00    	mov    0x5522(%rip),%esi        # 4074fc <check_level>
  401fda:	39 fe                	cmp    %edi,%esi
  401fdc:	75 39                	jne    402017 <validate+0x57>
  401fde:	0f be 35 43 61 00 00 	movsbl 0x6143(%rip),%esi        # 408128 <target_prefix>
  401fe5:	48 8d 0d 34 55 00 00 	lea    0x5534(%rip),%rcx        # 407520 <gets_buf>
  401fec:	89 fa                	mov    %edi,%edx
  401fee:	48 8d 3d 68 24 00 00 	lea    0x2468(%rip),%rdi        # 40445d <_IO_stdin_used+0x45d>
  401ff5:	b8 00 00 00 00       	mov    $0x0,%eax
  401ffa:	e8 b1 f0 ff ff       	callq  4010b0 <printf@plt>
  401fff:	5b                   	pop    %rbx
  402000:	c3                   	retq   
  402001:	48 8d 3d 37 24 00 00 	lea    0x2437(%rip),%rdi        # 40443f <_IO_stdin_used+0x43f>
  402008:	e8 73 f0 ff ff       	callq  401080 <puts@plt>
  40200d:	b8 00 00 00 00       	mov    $0x0,%eax
  402012:	e8 7c fe ff ff       	callq  401e93 <check_fail>
  402017:	89 fa                	mov    %edi,%edx
  402019:	48 8d 3d f8 24 00 00 	lea    0x24f8(%rip),%rdi        # 404518 <_IO_stdin_used+0x518>
  402020:	b8 00 00 00 00       	mov    $0x0,%eax
  402025:	e8 86 f0 ff ff       	callq  4010b0 <printf@plt>
  40202a:	b8 00 00 00 00       	mov    $0x0,%eax
  40202f:	e8 5f fe ff ff       	callq  401e93 <check_fail>
  402034:	39 3d c6 54 00 00    	cmp    %edi,0x54c6(%rip)        # 407500 <vlevel>
  40203a:	74 1a                	je     402056 <validate+0x96>
  40203c:	48 8d 3d fc 23 00 00 	lea    0x23fc(%rip),%rdi        # 40443f <_IO_stdin_used+0x43f>
  402043:	e8 38 f0 ff ff       	callq  401080 <puts@plt>
  402048:	89 de                	mov    %ebx,%esi
  40204a:	bf 00 00 00 00       	mov    $0x0,%edi
  40204f:	e8 c4 fe ff ff       	callq  401f18 <notify_server>
  402054:	eb a9                	jmp    401fff <validate+0x3f>
  402056:	0f be 15 cb 60 00 00 	movsbl 0x60cb(%rip),%edx        # 408128 <target_prefix>
  40205d:	89 fe                	mov    %edi,%esi
  40205f:	48 8d 3d da 24 00 00 	lea    0x24da(%rip),%rdi        # 404540 <_IO_stdin_used+0x540>
  402066:	b8 00 00 00 00       	mov    $0x0,%eax
  40206b:	e8 40 f0 ff ff       	callq  4010b0 <printf@plt>
  402070:	89 de                	mov    %ebx,%esi
  402072:	bf 01 00 00 00       	mov    $0x1,%edi
  402077:	e8 9c fe ff ff       	callq  401f18 <notify_server>
  40207c:	eb 81                	jmp    401fff <validate+0x3f>

000000000040207e <fail>:
  40207e:	48 83 ec 08          	sub    $0x8,%rsp
  402082:	83 3d 83 54 00 00 00 	cmpl   $0x0,0x5483(%rip)        # 40750c <is_checker>
  402089:	75 11                	jne    40209c <fail+0x1e>
  40208b:	89 fe                	mov    %edi,%esi
  40208d:	bf 00 00 00 00       	mov    $0x0,%edi
  402092:	e8 81 fe ff ff       	callq  401f18 <notify_server>
  402097:	48 83 c4 08          	add    $0x8,%rsp
  40209b:	c3                   	retq   
  40209c:	b8 00 00 00 00       	mov    $0x0,%eax
  4020a1:	e8 ed fd ff ff       	callq  401e93 <check_fail>

00000000004020a6 <bushandler>:
  4020a6:	48 83 ec 08          	sub    $0x8,%rsp
  4020aa:	83 3d 5b 54 00 00 00 	cmpl   $0x0,0x545b(%rip)        # 40750c <is_checker>
  4020b1:	74 16                	je     4020c9 <bushandler+0x23>
  4020b3:	48 8d 3d b8 23 00 00 	lea    0x23b8(%rip),%rdi        # 404472 <_IO_stdin_used+0x472>
  4020ba:	e8 c1 ef ff ff       	callq  401080 <puts@plt>
  4020bf:	b8 00 00 00 00       	mov    $0x0,%eax
  4020c4:	e8 ca fd ff ff       	callq  401e93 <check_fail>
  4020c9:	48 8d 3d a8 24 00 00 	lea    0x24a8(%rip),%rdi        # 404578 <_IO_stdin_used+0x578>
  4020d0:	e8 ab ef ff ff       	callq  401080 <puts@plt>
  4020d5:	48 8d 3d a0 23 00 00 	lea    0x23a0(%rip),%rdi        # 40447c <_IO_stdin_used+0x47c>
  4020dc:	e8 9f ef ff ff       	callq  401080 <puts@plt>
  4020e1:	be 00 00 00 00       	mov    $0x0,%esi
  4020e6:	bf 00 00 00 00       	mov    $0x0,%edi
  4020eb:	e8 28 fe ff ff       	callq  401f18 <notify_server>
  4020f0:	bf 01 00 00 00       	mov    $0x1,%edi
  4020f5:	e8 f6 f0 ff ff       	callq  4011f0 <exit@plt>

00000000004020fa <seghandler>:
  4020fa:	48 83 ec 08          	sub    $0x8,%rsp
  4020fe:	83 3d 07 54 00 00 00 	cmpl   $0x0,0x5407(%rip)        # 40750c <is_checker>
  402105:	74 16                	je     40211d <seghandler+0x23>
  402107:	48 8d 3d 84 23 00 00 	lea    0x2384(%rip),%rdi        # 404492 <_IO_stdin_used+0x492>
  40210e:	e8 6d ef ff ff       	callq  401080 <puts@plt>
  402113:	b8 00 00 00 00       	mov    $0x0,%eax
  402118:	e8 76 fd ff ff       	callq  401e93 <check_fail>
  40211d:	48 8d 3d 74 24 00 00 	lea    0x2474(%rip),%rdi        # 404598 <_IO_stdin_used+0x598>
  402124:	e8 57 ef ff ff       	callq  401080 <puts@plt>
  402129:	48 8d 3d 4c 23 00 00 	lea    0x234c(%rip),%rdi        # 40447c <_IO_stdin_used+0x47c>
  402130:	e8 4b ef ff ff       	callq  401080 <puts@plt>
  402135:	be 00 00 00 00       	mov    $0x0,%esi
  40213a:	bf 00 00 00 00       	mov    $0x0,%edi
  40213f:	e8 d4 fd ff ff       	callq  401f18 <notify_server>
  402144:	bf 01 00 00 00       	mov    $0x1,%edi
  402149:	e8 a2 f0 ff ff       	callq  4011f0 <exit@plt>

000000000040214e <illegalhandler>:
  40214e:	48 83 ec 08          	sub    $0x8,%rsp
  402152:	83 3d b3 53 00 00 00 	cmpl   $0x0,0x53b3(%rip)        # 40750c <is_checker>
  402159:	74 16                	je     402171 <illegalhandler+0x23>
  40215b:	48 8d 3d 43 23 00 00 	lea    0x2343(%rip),%rdi        # 4044a5 <_IO_stdin_used+0x4a5>
  402162:	e8 19 ef ff ff       	callq  401080 <puts@plt>
  402167:	b8 00 00 00 00       	mov    $0x0,%eax
  40216c:	e8 22 fd ff ff       	callq  401e93 <check_fail>
  402171:	48 8d 3d 48 24 00 00 	lea    0x2448(%rip),%rdi        # 4045c0 <_IO_stdin_used+0x5c0>
  402178:	e8 03 ef ff ff       	callq  401080 <puts@plt>
  40217d:	48 8d 3d f8 22 00 00 	lea    0x22f8(%rip),%rdi        # 40447c <_IO_stdin_used+0x47c>
  402184:	e8 f7 ee ff ff       	callq  401080 <puts@plt>
  402189:	be 00 00 00 00       	mov    $0x0,%esi
  40218e:	bf 00 00 00 00       	mov    $0x0,%edi
  402193:	e8 80 fd ff ff       	callq  401f18 <notify_server>
  402198:	bf 01 00 00 00       	mov    $0x1,%edi
  40219d:	e8 4e f0 ff ff       	callq  4011f0 <exit@plt>

00000000004021a2 <sigalrmhandler>:
  4021a2:	48 83 ec 08          	sub    $0x8,%rsp
  4021a6:	83 3d 5f 53 00 00 00 	cmpl   $0x0,0x535f(%rip)        # 40750c <is_checker>
  4021ad:	74 16                	je     4021c5 <sigalrmhandler+0x23>
  4021af:	48 8d 3d 03 23 00 00 	lea    0x2303(%rip),%rdi        # 4044b9 <_IO_stdin_used+0x4b9>
  4021b6:	e8 c5 ee ff ff       	callq  401080 <puts@plt>
  4021bb:	b8 00 00 00 00       	mov    $0x0,%eax
  4021c0:	e8 ce fc ff ff       	callq  401e93 <check_fail>
  4021c5:	be 05 00 00 00       	mov    $0x5,%esi
  4021ca:	48 8d 3d 1f 24 00 00 	lea    0x241f(%rip),%rdi        # 4045f0 <_IO_stdin_used+0x5f0>
  4021d1:	b8 00 00 00 00       	mov    $0x0,%eax
  4021d6:	e8 d5 ee ff ff       	callq  4010b0 <printf@plt>
  4021db:	be 00 00 00 00       	mov    $0x0,%esi
  4021e0:	bf 00 00 00 00       	mov    $0x0,%edi
  4021e5:	e8 2e fd ff ff       	callq  401f18 <notify_server>
  4021ea:	bf 01 00 00 00       	mov    $0x1,%edi
  4021ef:	e8 fc ef ff ff       	callq  4011f0 <exit@plt>

00000000004021f4 <launch>:
  4021f4:	55                   	push   %rbp
  4021f5:	48 89 e5             	mov    %rsp,%rbp
  4021f8:	48 89 fa             	mov    %rdi,%rdx
  4021fb:	48 8d 47 17          	lea    0x17(%rdi),%rax
  4021ff:	48 83 e0 f0          	and    $0xfffffffffffffff0,%rax
  402203:	48 29 c4             	sub    %rax,%rsp
  402206:	48 8d 7c 24 0f       	lea    0xf(%rsp),%rdi
  40220b:	48 83 e7 f0          	and    $0xfffffffffffffff0,%rdi
  40220f:	be f4 00 00 00       	mov    $0xf4,%esi
  402214:	e8 a7 ee ff ff       	callq  4010c0 <memset@plt>
  402219:	48 8b 05 80 52 00 00 	mov    0x5280(%rip),%rax        # 4074a0 <stdin@@GLIBC_2.2.5>
  402220:	48 39 05 c9 52 00 00 	cmp    %rax,0x52c9(%rip)        # 4074f0 <infile>
  402227:	74 2b                	je     402254 <launch+0x60>
  402229:	c7 05 cd 52 00 00 00 	movl   $0x0,0x52cd(%rip)        # 407500 <vlevel>
  402230:	00 00 00 
  402233:	b8 00 00 00 00       	mov    $0x0,%eax
  402238:	e8 a1 fa ff ff       	callq  401cde <test>
  40223d:	83 3d c8 52 00 00 00 	cmpl   $0x0,0x52c8(%rip)        # 40750c <is_checker>
  402244:	75 21                	jne    402267 <launch+0x73>
  402246:	48 8d 3d 8c 22 00 00 	lea    0x228c(%rip),%rdi        # 4044d9 <_IO_stdin_used+0x4d9>
  40224d:	e8 2e ee ff ff       	callq  401080 <puts@plt>
  402252:	c9                   	leaveq 
  402253:	c3                   	retq   
  402254:	48 8d 3d 66 22 00 00 	lea    0x2266(%rip),%rdi        # 4044c1 <_IO_stdin_used+0x4c1>
  40225b:	b8 00 00 00 00       	mov    $0x0,%eax
  402260:	e8 4b ee ff ff       	callq  4010b0 <printf@plt>
  402265:	eb c2                	jmp    402229 <launch+0x35>
  402267:	48 8d 3d 60 22 00 00 	lea    0x2260(%rip),%rdi        # 4044ce <_IO_stdin_used+0x4ce>
  40226e:	e8 0d ee ff ff       	callq  401080 <puts@plt>
  402273:	b8 00 00 00 00       	mov    $0x0,%eax
  402278:	e8 16 fc ff ff       	callq  401e93 <check_fail>

000000000040227d <stable_launch>:
  40227d:	53                   	push   %rbx
  40227e:	48 89 3d 63 52 00 00 	mov    %rdi,0x5263(%rip)        # 4074e8 <global_offset>
  402285:	41 b9 00 00 00 00    	mov    $0x0,%r9d
  40228b:	41 b8 00 00 00 00    	mov    $0x0,%r8d
  402291:	b9 32 01 00 00       	mov    $0x132,%ecx
  402296:	ba 07 00 00 00       	mov    $0x7,%edx
  40229b:	be 00 00 10 00       	mov    $0x100000,%esi
  4022a0:	bf 00 60 58 55       	mov    $0x55586000,%edi
  4022a5:	e8 f6 ed ff ff       	callq  4010a0 <mmap@plt>
  4022aa:	48 89 c3             	mov    %rax,%rbx
  4022ad:	48 3d 00 60 58 55    	cmp    $0x55586000,%rax
  4022b3:	75 43                	jne    4022f8 <stable_launch+0x7b>
  4022b5:	48 8d 90 f8 ff 0f 00 	lea    0xffff8(%rax),%rdx
  4022bc:	48 89 15 6d 5e 00 00 	mov    %rdx,0x5e6d(%rip)        # 408130 <stack_top>
  4022c3:	48 89 e0             	mov    %rsp,%rax
  4022c6:	48 89 d4             	mov    %rdx,%rsp
  4022c9:	48 89 c2             	mov    %rax,%rdx
  4022cc:	48 89 15 0d 52 00 00 	mov    %rdx,0x520d(%rip)        # 4074e0 <global_save_stack>
  4022d3:	48 8b 3d 0e 52 00 00 	mov    0x520e(%rip),%rdi        # 4074e8 <global_offset>
  4022da:	e8 15 ff ff ff       	callq  4021f4 <launch>
  4022df:	48 8b 05 fa 51 00 00 	mov    0x51fa(%rip),%rax        # 4074e0 <global_save_stack>
  4022e6:	48 89 c4             	mov    %rax,%rsp
  4022e9:	be 00 00 10 00       	mov    $0x100000,%esi
  4022ee:	48 89 df             	mov    %rbx,%rdi
  4022f1:	e8 8a ee ff ff       	callq  401180 <munmap@plt>
  4022f6:	5b                   	pop    %rbx
  4022f7:	c3                   	retq   
  4022f8:	be 00 00 10 00       	mov    $0x100000,%esi
  4022fd:	48 89 c7             	mov    %rax,%rdi
  402300:	e8 7b ee ff ff       	callq  401180 <munmap@plt>
  402305:	ba 00 60 58 55       	mov    $0x55586000,%edx
  40230a:	48 8d 35 17 23 00 00 	lea    0x2317(%rip),%rsi        # 404628 <_IO_stdin_used+0x628>
  402311:	48 8b 3d a8 51 00 00 	mov    0x51a8(%rip),%rdi        # 4074c0 <stderr@@GLIBC_2.2.5>
  402318:	b8 00 00 00 00       	mov    $0x0,%eax
  40231d:	e8 fe ed ff ff       	callq  401120 <fprintf@plt>
  402322:	bf 01 00 00 00       	mov    $0x1,%edi
  402327:	e8 c4 ee ff ff       	callq  4011f0 <exit@plt>

000000000040232c <rio_readinitb>:
  40232c:	89 37                	mov    %esi,(%rdi)
  40232e:	c7 47 04 00 00 00 00 	movl   $0x0,0x4(%rdi)
  402335:	48 8d 47 10          	lea    0x10(%rdi),%rax
  402339:	48 89 47 08          	mov    %rax,0x8(%rdi)
  40233d:	c3                   	retq   

000000000040233e <sigalrm_handler>:
  40233e:	48 83 ec 08          	sub    $0x8,%rsp
  402342:	ba 00 00 00 00       	mov    $0x0,%edx
  402347:	48 8d 35 12 23 00 00 	lea    0x2312(%rip),%rsi        # 404660 <trans_char+0x10>
  40234e:	48 8b 3d 6b 51 00 00 	mov    0x516b(%rip),%rdi        # 4074c0 <stderr@@GLIBC_2.2.5>
  402355:	b8 00 00 00 00       	mov    $0x0,%eax
  40235a:	e8 c1 ed ff ff       	callq  401120 <fprintf@plt>
  40235f:	bf 01 00 00 00       	mov    $0x1,%edi
  402364:	e8 87 ee ff ff       	callq  4011f0 <exit@plt>

0000000000402369 <urlencode>:
  402369:	41 54                	push   %r12
  40236b:	55                   	push   %rbp
  40236c:	53                   	push   %rbx
  40236d:	48 83 ec 10          	sub    $0x10,%rsp
  402371:	48 89 fb             	mov    %rdi,%rbx
  402374:	48 89 f5             	mov    %rsi,%rbp
  402377:	48 c7 c1 ff ff ff ff 	mov    $0xffffffffffffffff,%rcx
  40237e:	b8 00 00 00 00       	mov    $0x0,%eax
  402383:	f2 ae                	repnz scas %es:(%rdi),%al
  402385:	48 89 ce             	mov    %rcx,%rsi
  402388:	48 f7 d6             	not    %rsi
  40238b:	8d 46 ff             	lea    -0x1(%rsi),%eax
  40238e:	eb 0e                	jmp    40239e <urlencode+0x35>
  402390:	88 55 00             	mov    %dl,0x0(%rbp)
  402393:	48 8d 6d 01          	lea    0x1(%rbp),%rbp
  402397:	48 83 c3 01          	add    $0x1,%rbx
  40239b:	44 89 e0             	mov    %r12d,%eax
  40239e:	44 8d 60 ff          	lea    -0x1(%rax),%r12d
  4023a2:	85 c0                	test   %eax,%eax
  4023a4:	0f 84 95 00 00 00    	je     40243f <urlencode+0xd6>
  4023aa:	0f b6 13             	movzbl (%rbx),%edx
  4023ad:	80 fa 2a             	cmp    $0x2a,%dl
  4023b0:	0f 94 c1             	sete   %cl
  4023b3:	80 fa 2d             	cmp    $0x2d,%dl
  4023b6:	0f 94 c0             	sete   %al
  4023b9:	08 c1                	or     %al,%cl
  4023bb:	75 d3                	jne    402390 <urlencode+0x27>
  4023bd:	80 fa 2e             	cmp    $0x2e,%dl
  4023c0:	74 ce                	je     402390 <urlencode+0x27>
  4023c2:	80 fa 5f             	cmp    $0x5f,%dl
  4023c5:	74 c9                	je     402390 <urlencode+0x27>
  4023c7:	8d 42 d0             	lea    -0x30(%rdx),%eax
  4023ca:	3c 09                	cmp    $0x9,%al
  4023cc:	76 c2                	jbe    402390 <urlencode+0x27>
  4023ce:	8d 42 bf             	lea    -0x41(%rdx),%eax
  4023d1:	3c 19                	cmp    $0x19,%al
  4023d3:	76 bb                	jbe    402390 <urlencode+0x27>
  4023d5:	8d 42 9f             	lea    -0x61(%rdx),%eax
  4023d8:	3c 19                	cmp    $0x19,%al
  4023da:	76 b4                	jbe    402390 <urlencode+0x27>
  4023dc:	80 fa 20             	cmp    $0x20,%dl
  4023df:	74 4c                	je     40242d <urlencode+0xc4>
  4023e1:	8d 42 e0             	lea    -0x20(%rdx),%eax
  4023e4:	3c 5f                	cmp    $0x5f,%al
  4023e6:	0f 96 c1             	setbe  %cl
  4023e9:	80 fa 09             	cmp    $0x9,%dl
  4023ec:	0f 94 c0             	sete   %al
  4023ef:	08 c1                	or     %al,%cl
  4023f1:	74 47                	je     40243a <urlencode+0xd1>
  4023f3:	0f b6 d2             	movzbl %dl,%edx
  4023f6:	48 8d 7c 24 08       	lea    0x8(%rsp),%rdi
  4023fb:	48 8d 35 f6 22 00 00 	lea    0x22f6(%rip),%rsi        # 4046f8 <trans_char+0xa8>
  402402:	b8 00 00 00 00       	mov    $0x0,%eax
  402407:	e8 d4 ed ff ff       	callq  4011e0 <sprintf@plt>
  40240c:	0f b6 44 24 08       	movzbl 0x8(%rsp),%eax
  402411:	88 45 00             	mov    %al,0x0(%rbp)
  402414:	0f b6 44 24 09       	movzbl 0x9(%rsp),%eax
  402419:	88 45 01             	mov    %al,0x1(%rbp)
  40241c:	0f b6 44 24 0a       	movzbl 0xa(%rsp),%eax
  402421:	88 45 02             	mov    %al,0x2(%rbp)
  402424:	48 8d 6d 03          	lea    0x3(%rbp),%rbp
  402428:	e9 6a ff ff ff       	jmpq   402397 <urlencode+0x2e>
  40242d:	c6 45 00 2b          	movb   $0x2b,0x0(%rbp)
  402431:	48 8d 6d 01          	lea    0x1(%rbp),%rbp
  402435:	e9 5d ff ff ff       	jmpq   402397 <urlencode+0x2e>
  40243a:	b8 ff ff ff ff       	mov    $0xffffffff,%eax
  40243f:	48 83 c4 10          	add    $0x10,%rsp
  402443:	5b                   	pop    %rbx
  402444:	5d                   	pop    %rbp
  402445:	41 5c                	pop    %r12
  402447:	c3                   	retq   

0000000000402448 <rio_writen>:
  402448:	41 55                	push   %r13
  40244a:	41 54                	push   %r12
  40244c:	55                   	push   %rbp
  40244d:	53                   	push   %rbx
  40244e:	48 83 ec 08          	sub    $0x8,%rsp
  402452:	41 89 fc             	mov    %edi,%r12d
  402455:	48 89 f5             	mov    %rsi,%rbp
  402458:	49 89 d5             	mov    %rdx,%r13
  40245b:	48 89 d3             	mov    %rdx,%rbx
  40245e:	eb 06                	jmp    402466 <rio_writen+0x1e>
  402460:	48 29 c3             	sub    %rax,%rbx
  402463:	48 01 c5             	add    %rax,%rbp
  402466:	48 85 db             	test   %rbx,%rbx
  402469:	74 24                	je     40248f <rio_writen+0x47>
  40246b:	48 89 da             	mov    %rbx,%rdx
  40246e:	48 89 ee             	mov    %rbp,%rsi
  402471:	44 89 e7             	mov    %r12d,%edi
  402474:	e8 17 ec ff ff       	callq  401090 <write@plt>
  402479:	48 85 c0             	test   %rax,%rax
  40247c:	7f e2                	jg     402460 <rio_writen+0x18>
  40247e:	e8 bd eb ff ff       	callq  401040 <__errno_location@plt>
  402483:	83 38 04             	cmpl   $0x4,(%rax)
  402486:	75 15                	jne    40249d <rio_writen+0x55>
  402488:	b8 00 00 00 00       	mov    $0x0,%eax
  40248d:	eb d1                	jmp    402460 <rio_writen+0x18>
  40248f:	4c 89 e8             	mov    %r13,%rax
  402492:	48 83 c4 08          	add    $0x8,%rsp
  402496:	5b                   	pop    %rbx
  402497:	5d                   	pop    %rbp
  402498:	41 5c                	pop    %r12
  40249a:	41 5d                	pop    %r13
  40249c:	c3                   	retq   
  40249d:	48 c7 c0 ff ff ff ff 	mov    $0xffffffffffffffff,%rax
  4024a4:	eb ec                	jmp    402492 <rio_writen+0x4a>

00000000004024a6 <rio_read>:
  4024a6:	41 55                	push   %r13
  4024a8:	41 54                	push   %r12
  4024aa:	55                   	push   %rbp
  4024ab:	53                   	push   %rbx
  4024ac:	48 83 ec 08          	sub    $0x8,%rsp
  4024b0:	48 89 fb             	mov    %rdi,%rbx
  4024b3:	49 89 f5             	mov    %rsi,%r13
  4024b6:	49 89 d4             	mov    %rdx,%r12
  4024b9:	eb 0a                	jmp    4024c5 <rio_read+0x1f>
  4024bb:	e8 80 eb ff ff       	callq  401040 <__errno_location@plt>
  4024c0:	83 38 04             	cmpl   $0x4,(%rax)
  4024c3:	75 5a                	jne    40251f <rio_read+0x79>
  4024c5:	8b 6b 04             	mov    0x4(%rbx),%ebp
  4024c8:	85 ed                	test   %ebp,%ebp
  4024ca:	7f 22                	jg     4024ee <rio_read+0x48>
  4024cc:	48 8d 6b 10          	lea    0x10(%rbx),%rbp
  4024d0:	ba 00 20 00 00       	mov    $0x2000,%edx
  4024d5:	48 89 ee             	mov    %rbp,%rsi
  4024d8:	8b 3b                	mov    (%rbx),%edi
  4024da:	e8 11 ec ff ff       	callq  4010f0 <read@plt>
  4024df:	89 43 04             	mov    %eax,0x4(%rbx)
  4024e2:	85 c0                	test   %eax,%eax
  4024e4:	78 d5                	js     4024bb <rio_read+0x15>
  4024e6:	74 40                	je     402528 <rio_read+0x82>
  4024e8:	48 89 6b 08          	mov    %rbp,0x8(%rbx)
  4024ec:	eb d7                	jmp    4024c5 <rio_read+0x1f>
  4024ee:	89 e8                	mov    %ebp,%eax
  4024f0:	4c 39 e0             	cmp    %r12,%rax
  4024f3:	72 03                	jb     4024f8 <rio_read+0x52>
  4024f5:	44 89 e5             	mov    %r12d,%ebp
  4024f8:	4c 63 e5             	movslq %ebp,%r12
  4024fb:	48 8b 73 08          	mov    0x8(%rbx),%rsi
  4024ff:	4c 89 e2             	mov    %r12,%rdx
  402502:	4c 89 ef             	mov    %r13,%rdi
  402505:	e8 36 ec ff ff       	callq  401140 <memcpy@plt>
  40250a:	4c 01 63 08          	add    %r12,0x8(%rbx)
  40250e:	29 6b 04             	sub    %ebp,0x4(%rbx)
  402511:	4c 89 e0             	mov    %r12,%rax
  402514:	48 83 c4 08          	add    $0x8,%rsp
  402518:	5b                   	pop    %rbx
  402519:	5d                   	pop    %rbp
  40251a:	41 5c                	pop    %r12
  40251c:	41 5d                	pop    %r13
  40251e:	c3                   	retq   
  40251f:	48 c7 c0 ff ff ff ff 	mov    $0xffffffffffffffff,%rax
  402526:	eb ec                	jmp    402514 <rio_read+0x6e>
  402528:	b8 00 00 00 00       	mov    $0x0,%eax
  40252d:	eb e5                	jmp    402514 <rio_read+0x6e>

000000000040252f <rio_readlineb>:
  40252f:	41 55                	push   %r13
  402531:	41 54                	push   %r12
  402533:	55                   	push   %rbp
  402534:	53                   	push   %rbx
  402535:	48 83 ec 18          	sub    $0x18,%rsp
  402539:	49 89 fd             	mov    %rdi,%r13
  40253c:	48 89 f5             	mov    %rsi,%rbp
  40253f:	49 89 d4             	mov    %rdx,%r12
  402542:	bb 01 00 00 00       	mov    $0x1,%ebx
  402547:	4c 39 e3             	cmp    %r12,%rbx
  40254a:	73 44                	jae    402590 <rio_readlineb+0x61>
  40254c:	48 8d 74 24 0f       	lea    0xf(%rsp),%rsi
  402551:	ba 01 00 00 00       	mov    $0x1,%edx
  402556:	4c 89 ef             	mov    %r13,%rdi
  402559:	e8 48 ff ff ff       	callq  4024a6 <rio_read>
  40255e:	83 f8 01             	cmp    $0x1,%eax
  402561:	75 19                	jne    40257c <rio_readlineb+0x4d>
  402563:	48 8d 55 01          	lea    0x1(%rbp),%rdx
  402567:	0f b6 44 24 0f       	movzbl 0xf(%rsp),%eax
  40256c:	88 45 00             	mov    %al,0x0(%rbp)
  40256f:	3c 0a                	cmp    $0xa,%al
  402571:	74 1a                	je     40258d <rio_readlineb+0x5e>
  402573:	48 83 c3 01          	add    $0x1,%rbx
  402577:	48 89 d5             	mov    %rdx,%rbp
  40257a:	eb cb                	jmp    402547 <rio_readlineb+0x18>
  40257c:	85 c0                	test   %eax,%eax
  40257e:	75 22                	jne    4025a2 <rio_readlineb+0x73>
  402580:	48 83 fb 01          	cmp    $0x1,%rbx
  402584:	75 0a                	jne    402590 <rio_readlineb+0x61>
  402586:	b8 00 00 00 00       	mov    $0x0,%eax
  40258b:	eb 0a                	jmp    402597 <rio_readlineb+0x68>
  40258d:	48 89 d5             	mov    %rdx,%rbp
  402590:	c6 45 00 00          	movb   $0x0,0x0(%rbp)
  402594:	48 89 d8             	mov    %rbx,%rax
  402597:	48 83 c4 18          	add    $0x18,%rsp
  40259b:	5b                   	pop    %rbx
  40259c:	5d                   	pop    %rbp
  40259d:	41 5c                	pop    %r12
  40259f:	41 5d                	pop    %r13
  4025a1:	c3                   	retq   
  4025a2:	48 c7 c0 ff ff ff ff 	mov    $0xffffffffffffffff,%rax
  4025a9:	eb ec                	jmp    402597 <rio_readlineb+0x68>

00000000004025ab <submitr>:
  4025ab:	41 57                	push   %r15
  4025ad:	41 56                	push   %r14
  4025af:	41 55                	push   %r13
  4025b1:	41 54                	push   %r12
  4025b3:	55                   	push   %rbp
  4025b4:	53                   	push   %rbx
  4025b5:	48 81 ec 58 a0 00 00 	sub    $0xa058,%rsp
  4025bc:	49 89 fd             	mov    %rdi,%r13
  4025bf:	89 74 24 14          	mov    %esi,0x14(%rsp)
  4025c3:	49 89 d7             	mov    %rdx,%r15
  4025c6:	48 89 4c 24 08       	mov    %rcx,0x8(%rsp)
  4025cb:	4c 89 44 24 18       	mov    %r8,0x18(%rsp)
  4025d0:	4d 89 ce             	mov    %r9,%r14
  4025d3:	48 8b ac 24 90 a0 00 	mov    0xa090(%rsp),%rbp
  4025da:	00 
  4025db:	c7 84 24 2c 20 00 00 	movl   $0x0,0x202c(%rsp)
  4025e2:	00 00 00 00 
  4025e6:	ba 00 00 00 00       	mov    $0x0,%edx
  4025eb:	be 01 00 00 00       	mov    $0x1,%esi
  4025f0:	bf 02 00 00 00       	mov    $0x2,%edi
  4025f5:	e8 26 ec ff ff       	callq  401220 <socket@plt>
  4025fa:	85 c0                	test   %eax,%eax
  4025fc:	0f 88 9a 02 00 00    	js     40289c <submitr+0x2f1>
  402602:	89 c3                	mov    %eax,%ebx
  402604:	4c 89 ef             	mov    %r13,%rdi
  402607:	e8 04 eb ff ff       	callq  401110 <gethostbyname@plt>
  40260c:	48 85 c0             	test   %rax,%rax
  40260f:	0f 84 d3 02 00 00    	je     4028e8 <submitr+0x33d>
  402615:	4c 8d a4 24 40 a0 00 	lea    0xa040(%rsp),%r12
  40261c:	00 
  40261d:	48 c7 84 24 42 a0 00 	movq   $0x0,0xa042(%rsp)
  402624:	00 00 00 00 00 
  402629:	c7 84 24 4a a0 00 00 	movl   $0x0,0xa04a(%rsp)
  402630:	00 00 00 00 
  402634:	66 c7 84 24 4e a0 00 	movw   $0x0,0xa04e(%rsp)
  40263b:	00 00 00 
  40263e:	66 c7 84 24 40 a0 00 	movw   $0x2,0xa040(%rsp)
  402645:	00 02 00 
  402648:	48 8b 48 18          	mov    0x18(%rax),%rcx
  40264c:	48 63 50 14          	movslq 0x14(%rax),%rdx
  402650:	48 8d bc 24 44 a0 00 	lea    0xa044(%rsp),%rdi
  402657:	00 
  402658:	48 8b 31             	mov    (%rcx),%rsi
  40265b:	e8 30 eb ff ff       	callq  401190 <memmove@plt>
  402660:	0f b7 44 24 14       	movzwl 0x14(%rsp),%eax
  402665:	66 c1 c0 08          	rol    $0x8,%ax
  402669:	66 89 84 24 42 a0 00 	mov    %ax,0xa042(%rsp)
  402670:	00 
  402671:	ba 10 00 00 00       	mov    $0x10,%edx
  402676:	4c 89 e6             	mov    %r12,%rsi
  402679:	89 df                	mov    %ebx,%edi
  40267b:	e8 80 eb ff ff       	callq  401200 <connect@plt>
  402680:	85 c0                	test   %eax,%eax
  402682:	0f 88 c8 02 00 00    	js     402950 <submitr+0x3a5>
  402688:	48 c7 c6 ff ff ff ff 	mov    $0xffffffffffffffff,%rsi
  40268f:	b8 00 00 00 00       	mov    $0x0,%eax
  402694:	48 89 f1             	mov    %rsi,%rcx
  402697:	4c 89 f7             	mov    %r14,%rdi
  40269a:	f2 ae                	repnz scas %es:(%rdi),%al
  40269c:	48 89 ca             	mov    %rcx,%rdx
  40269f:	48 f7 d2             	not    %rdx
  4026a2:	48 89 f1             	mov    %rsi,%rcx
  4026a5:	4c 89 ff             	mov    %r15,%rdi
  4026a8:	f2 ae                	repnz scas %es:(%rdi),%al
  4026aa:	48 f7 d1             	not    %rcx
  4026ad:	49 89 c8             	mov    %rcx,%r8
  4026b0:	48 89 f1             	mov    %rsi,%rcx
  4026b3:	48 8b 7c 24 08       	mov    0x8(%rsp),%rdi
  4026b8:	f2 ae                	repnz scas %es:(%rdi),%al
  4026ba:	48 f7 d1             	not    %rcx
  4026bd:	4d 8d 44 08 fe       	lea    -0x2(%r8,%rcx,1),%r8
  4026c2:	48 89 f1             	mov    %rsi,%rcx
  4026c5:	48 8b 7c 24 18       	mov    0x18(%rsp),%rdi
  4026ca:	f2 ae                	repnz scas %es:(%rdi),%al
  4026cc:	48 89 c8             	mov    %rcx,%rax
  4026cf:	48 f7 d0             	not    %rax
  4026d2:	49 8d 4c 00 ff       	lea    -0x1(%r8,%rax,1),%rcx
  4026d7:	48 8d 44 52 fd       	lea    -0x3(%rdx,%rdx,2),%rax
  4026dc:	48 8d 84 01 80 00 00 	lea    0x80(%rcx,%rax,1),%rax
  4026e3:	00 
  4026e4:	48 3d 00 20 00 00    	cmp    $0x2000,%rax
  4026ea:	0f 87 ba 02 00 00    	ja     4029aa <submitr+0x3ff>
  4026f0:	48 8d b4 24 30 40 00 	lea    0x4030(%rsp),%rsi
  4026f7:	00 
  4026f8:	b9 00 04 00 00       	mov    $0x400,%ecx
  4026fd:	b8 00 00 00 00       	mov    $0x0,%eax
  402702:	48 89 f7             	mov    %rsi,%rdi
  402705:	f3 48 ab             	rep stos %rax,%es:(%rdi)
  402708:	4c 89 f7             	mov    %r14,%rdi
  40270b:	e8 59 fc ff ff       	callq  402369 <urlencode>
  402710:	85 c0                	test   %eax,%eax
  402712:	0f 88 05 03 00 00    	js     402a1d <submitr+0x472>
  402718:	4c 8d a4 24 30 60 00 	lea    0x6030(%rsp),%r12
  40271f:	00 
  402720:	4d 89 e9             	mov    %r13,%r9
  402723:	4c 8d 84 24 30 40 00 	lea    0x4030(%rsp),%r8
  40272a:	00 
  40272b:	4c 89 f9             	mov    %r15,%rcx
  40272e:	48 8b 54 24 08       	mov    0x8(%rsp),%rdx
  402733:	48 8d 35 4e 1f 00 00 	lea    0x1f4e(%rip),%rsi        # 404688 <trans_char+0x38>
  40273a:	4c 89 e7             	mov    %r12,%rdi
  40273d:	b8 00 00 00 00       	mov    $0x0,%eax
  402742:	e8 99 ea ff ff       	callq  4011e0 <sprintf@plt>
  402747:	48 c7 c1 ff ff ff ff 	mov    $0xffffffffffffffff,%rcx
  40274e:	b8 00 00 00 00       	mov    $0x0,%eax
  402753:	4c 89 e7             	mov    %r12,%rdi
  402756:	f2 ae                	repnz scas %es:(%rdi),%al
  402758:	48 89 ca             	mov    %rcx,%rdx
  40275b:	48 f7 d2             	not    %rdx
  40275e:	48 8d 52 ff          	lea    -0x1(%rdx),%rdx
  402762:	4c 89 e6             	mov    %r12,%rsi
  402765:	89 df                	mov    %ebx,%edi
  402767:	e8 dc fc ff ff       	callq  402448 <rio_writen>
  40276c:	48 85 c0             	test   %rax,%rax
  40276f:	0f 88 33 03 00 00    	js     402aa8 <submitr+0x4fd>
  402775:	4c 8d a4 24 30 80 00 	lea    0x8030(%rsp),%r12
  40277c:	00 
  40277d:	89 de                	mov    %ebx,%esi
  40277f:	4c 89 e7             	mov    %r12,%rdi
  402782:	e8 a5 fb ff ff       	callq  40232c <rio_readinitb>
  402787:	48 8d b4 24 30 60 00 	lea    0x6030(%rsp),%rsi
  40278e:	00 
  40278f:	ba 00 20 00 00       	mov    $0x2000,%edx
  402794:	4c 89 e7             	mov    %r12,%rdi
  402797:	e8 93 fd ff ff       	callq  40252f <rio_readlineb>
  40279c:	48 85 c0             	test   %rax,%rax
  40279f:	0f 8e 72 03 00 00    	jle    402b17 <submitr+0x56c>
  4027a5:	48 8d 8c 24 2c 20 00 	lea    0x202c(%rsp),%rcx
  4027ac:	00 
  4027ad:	48 8d 94 24 30 20 00 	lea    0x2030(%rsp),%rdx
  4027b4:	00 
  4027b5:	48 8d bc 24 30 60 00 	lea    0x6030(%rsp),%rdi
  4027bc:	00 
  4027bd:	4c 8d 44 24 20       	lea    0x20(%rsp),%r8
  4027c2:	48 8d 35 36 1f 00 00 	lea    0x1f36(%rip),%rsi        # 4046ff <trans_char+0xaf>
  4027c9:	b8 00 00 00 00       	mov    $0x0,%eax
  4027ce:	e8 9d e9 ff ff       	callq  401170 <__isoc99_sscanf@plt>
  4027d3:	48 8d b4 24 30 60 00 	lea    0x6030(%rsp),%rsi
  4027da:	00 
  4027db:	b9 03 00 00 00       	mov    $0x3,%ecx
  4027e0:	48 8d 3d 2f 1f 00 00 	lea    0x1f2f(%rip),%rdi        # 404716 <trans_char+0xc6>
  4027e7:	f3 a6                	repz cmpsb %es:(%rdi),%ds:(%rsi)
  4027e9:	0f 97 c0             	seta   %al
  4027ec:	1c 00                	sbb    $0x0,%al
  4027ee:	84 c0                	test   %al,%al
  4027f0:	0f 84 9f 03 00 00    	je     402b95 <submitr+0x5ea>
  4027f6:	48 8d b4 24 30 60 00 	lea    0x6030(%rsp),%rsi
  4027fd:	00 
  4027fe:	48 8d bc 24 30 80 00 	lea    0x8030(%rsp),%rdi
  402805:	00 
  402806:	ba 00 20 00 00       	mov    $0x2000,%edx
  40280b:	e8 1f fd ff ff       	callq  40252f <rio_readlineb>
  402810:	48 85 c0             	test   %rax,%rax
  402813:	7f be                	jg     4027d3 <submitr+0x228>
  402815:	48 b8 45 72 72 6f 72 	movabs $0x43203a726f727245,%rax
  40281c:	3a 20 43 
  40281f:	48 ba 6c 69 65 6e 74 	movabs $0x6e7520746e65696c,%rdx
  402826:	20 75 6e 
  402829:	48 89 45 00          	mov    %rax,0x0(%rbp)
  40282d:	48 89 55 08          	mov    %rdx,0x8(%rbp)
  402831:	48 b8 61 62 6c 65 20 	movabs $0x206f7420656c6261,%rax
  402838:	74 6f 20 
  40283b:	48 ba 72 65 61 64 20 	movabs $0x6165682064616572,%rdx
  402842:	68 65 61 
  402845:	48 89 45 10          	mov    %rax,0x10(%rbp)
  402849:	48 89 55 18          	mov    %rdx,0x18(%rbp)
  40284d:	48 b8 64 65 72 73 20 	movabs $0x6f72662073726564,%rax
  402854:	66 72 6f 
  402857:	48 ba 6d 20 74 68 65 	movabs $0x657220656874206d,%rdx
  40285e:	20 72 65 
  402861:	48 89 45 20          	mov    %rax,0x20(%rbp)
  402865:	48 89 55 28          	mov    %rdx,0x28(%rbp)
  402869:	48 b8 73 75 6c 74 20 	movabs $0x72657320746c7573,%rax
  402870:	73 65 72 
  402873:	48 89 45 30          	mov    %rax,0x30(%rbp)
  402877:	c7 45 38 76 65 72 00 	movl   $0x726576,0x38(%rbp)
  40287e:	89 df                	mov    %ebx,%edi
  402880:	e8 5b e8 ff ff       	callq  4010e0 <close@plt>
  402885:	b8 ff ff ff ff       	mov    $0xffffffff,%eax
  40288a:	48 81 c4 58 a0 00 00 	add    $0xa058,%rsp
  402891:	5b                   	pop    %rbx
  402892:	5d                   	pop    %rbp
  402893:	41 5c                	pop    %r12
  402895:	41 5d                	pop    %r13
  402897:	41 5e                	pop    %r14
  402899:	41 5f                	pop    %r15
  40289b:	c3                   	retq   
  40289c:	48 b8 45 72 72 6f 72 	movabs $0x43203a726f727245,%rax
  4028a3:	3a 20 43 
  4028a6:	48 ba 6c 69 65 6e 74 	movabs $0x6e7520746e65696c,%rdx
  4028ad:	20 75 6e 
  4028b0:	48 89 45 00          	mov    %rax,0x0(%rbp)
  4028b4:	48 89 55 08          	mov    %rdx,0x8(%rbp)
  4028b8:	48 b8 61 62 6c 65 20 	movabs $0x206f7420656c6261,%rax
  4028bf:	74 6f 20 
  4028c2:	48 ba 63 72 65 61 74 	movabs $0x7320657461657263,%rdx
  4028c9:	65 20 73 
  4028cc:	48 89 45 10          	mov    %rax,0x10(%rbp)
  4028d0:	48 89 55 18          	mov    %rdx,0x18(%rbp)
  4028d4:	c7 45 20 6f 63 6b 65 	movl   $0x656b636f,0x20(%rbp)
  4028db:	66 c7 45 24 74 00    	movw   $0x74,0x24(%rbp)
  4028e1:	b8 ff ff ff ff       	mov    $0xffffffff,%eax
  4028e6:	eb a2                	jmp    40288a <submitr+0x2df>
  4028e8:	48 b8 45 72 72 6f 72 	movabs $0x44203a726f727245,%rax
  4028ef:	3a 20 44 
  4028f2:	48 ba 4e 53 20 69 73 	movabs $0x6e7520736920534e,%rdx
  4028f9:	20 75 6e 
  4028fc:	48 89 45 00          	mov    %rax,0x0(%rbp)
  402900:	48 89 55 08          	mov    %rdx,0x8(%rbp)
  402904:	48 b8 61 62 6c 65 20 	movabs $0x206f7420656c6261,%rax
  40290b:	74 6f 20 
  40290e:	48 ba 72 65 73 6f 6c 	movabs $0x2065766c6f736572,%rdx
  402915:	76 65 20 
  402918:	48 89 45 10          	mov    %rax,0x10(%rbp)
  40291c:	48 89 55 18          	mov    %rdx,0x18(%rbp)
  402920:	48 b8 73 65 72 76 65 	movabs $0x6120726576726573,%rax
  402927:	72 20 61 
  40292a:	48 89 45 20          	mov    %rax,0x20(%rbp)
  40292e:	c7 45 28 64 64 72 65 	movl   $0x65726464,0x28(%rbp)
  402935:	66 c7 45 2c 73 73    	movw   $0x7373,0x2c(%rbp)
  40293b:	c6 45 2e 00          	movb   $0x0,0x2e(%rbp)
  40293f:	89 df                	mov    %ebx,%edi
  402941:	e8 9a e7 ff ff       	callq  4010e0 <close@plt>
  402946:	b8 ff ff ff ff       	mov    $0xffffffff,%eax
  40294b:	e9 3a ff ff ff       	jmpq   40288a <submitr+0x2df>
  402950:	48 b8 45 72 72 6f 72 	movabs $0x55203a726f727245,%rax
  402957:	3a 20 55 
  40295a:	48 ba 6e 61 62 6c 65 	movabs $0x6f7420656c62616e,%rdx
  402961:	20 74 6f 
  402964:	48 89 45 00          	mov    %rax,0x0(%rbp)
  402968:	48 89 55 08          	mov    %rdx,0x8(%rbp)
  40296c:	48 b8 20 63 6f 6e 6e 	movabs $0x7463656e6e6f6320,%rax
  402973:	65 63 74 
  402976:	48 ba 20 74 6f 20 74 	movabs $0x20656874206f7420,%rdx
  40297d:	68 65 20 
  402980:	48 89 45 10          	mov    %rax,0x10(%rbp)
  402984:	48 89 55 18          	mov    %rdx,0x18(%rbp)
  402988:	c7 45 20 73 65 72 76 	movl   $0x76726573,0x20(%rbp)
  40298f:	66 c7 45 24 65 72    	movw   $0x7265,0x24(%rbp)
  402995:	c6 45 26 00          	movb   $0x0,0x26(%rbp)
  402999:	89 df                	mov    %ebx,%edi
  40299b:	e8 40 e7 ff ff       	callq  4010e0 <close@plt>
  4029a0:	b8 ff ff ff ff       	mov    $0xffffffff,%eax
  4029a5:	e9 e0 fe ff ff       	jmpq   40288a <submitr+0x2df>
  4029aa:	48 b8 45 72 72 6f 72 	movabs $0x52203a726f727245,%rax
  4029b1:	3a 20 52 
  4029b4:	48 ba 65 73 75 6c 74 	movabs $0x747320746c757365,%rdx
  4029bb:	20 73 74 
  4029be:	48 89 45 00          	mov    %rax,0x0(%rbp)
  4029c2:	48 89 55 08          	mov    %rdx,0x8(%rbp)
  4029c6:	48 b8 72 69 6e 67 20 	movabs $0x6f6f7420676e6972,%rax
  4029cd:	74 6f 6f 
  4029d0:	48 ba 20 6c 61 72 67 	movabs $0x202e656772616c20,%rdx
  4029d7:	65 2e 20 
  4029da:	48 89 45 10          	mov    %rax,0x10(%rbp)
  4029de:	48 89 55 18          	mov    %rdx,0x18(%rbp)
  4029e2:	48 b8 49 6e 63 72 65 	movabs $0x6573616572636e49,%rax
  4029e9:	61 73 65 
  4029ec:	48 ba 20 53 55 42 4d 	movabs $0x5254494d42555320,%rdx
  4029f3:	49 54 52 
  4029f6:	48 89 45 20          	mov    %rax,0x20(%rbp)
  4029fa:	48 89 55 28          	mov    %rdx,0x28(%rbp)
  4029fe:	48 b8 5f 4d 41 58 42 	movabs $0x46554258414d5f,%rax
  402a05:	55 46 00 
  402a08:	48 89 45 30          	mov    %rax,0x30(%rbp)
  402a0c:	89 df                	mov    %ebx,%edi
  402a0e:	e8 cd e6 ff ff       	callq  4010e0 <close@plt>
  402a13:	b8 ff ff ff ff       	mov    $0xffffffff,%eax
  402a18:	e9 6d fe ff ff       	jmpq   40288a <submitr+0x2df>
  402a1d:	48 b8 45 72 72 6f 72 	movabs $0x52203a726f727245,%rax
  402a24:	3a 20 52 
  402a27:	48 ba 65 73 75 6c 74 	movabs $0x747320746c757365,%rdx
  402a2e:	20 73 74 
  402a31:	48 89 45 00          	mov    %rax,0x0(%rbp)
  402a35:	48 89 55 08          	mov    %rdx,0x8(%rbp)
  402a39:	48 b8 72 69 6e 67 20 	movabs $0x6e6f6320676e6972,%rax
  402a40:	63 6f 6e 
  402a43:	48 ba 74 61 69 6e 73 	movabs $0x6e6120736e696174,%rdx
  402a4a:	20 61 6e 
  402a4d:	48 89 45 10          	mov    %rax,0x10(%rbp)
  402a51:	48 89 55 18          	mov    %rdx,0x18(%rbp)
  402a55:	48 b8 20 69 6c 6c 65 	movabs $0x6c6167656c6c6920,%rax
  402a5c:	67 61 6c 
  402a5f:	48 ba 20 6f 72 20 75 	movabs $0x72706e7520726f20,%rdx
  402a66:	6e 70 72 
  402a69:	48 89 45 20          	mov    %rax,0x20(%rbp)
  402a6d:	48 89 55 28          	mov    %rdx,0x28(%rbp)
  402a71:	48 b8 69 6e 74 61 62 	movabs $0x20656c6261746e69,%rax
  402a78:	6c 65 20 
  402a7b:	48 ba 63 68 61 72 61 	movabs $0x6574636172616863,%rdx
  402a82:	63 74 65 
  402a85:	48 89 45 30          	mov    %rax,0x30(%rbp)
  402a89:	48 89 55 38          	mov    %rdx,0x38(%rbp)
  402a8d:	66 c7 45 40 72 2e    	movw   $0x2e72,0x40(%rbp)
  402a93:	c6 45 42 00          	movb   $0x0,0x42(%rbp)
  402a97:	89 df                	mov    %ebx,%edi
  402a99:	e8 42 e6 ff ff       	callq  4010e0 <close@plt>
  402a9e:	b8 ff ff ff ff       	mov    $0xffffffff,%eax
  402aa3:	e9 e2 fd ff ff       	jmpq   40288a <submitr+0x2df>
  402aa8:	48 b8 45 72 72 6f 72 	movabs $0x43203a726f727245,%rax
  402aaf:	3a 20 43 
  402ab2:	48 ba 6c 69 65 6e 74 	movabs $0x6e7520746e65696c,%rdx
  402ab9:	20 75 6e 
  402abc:	48 89 45 00          	mov    %rax,0x0(%rbp)
  402ac0:	48 89 55 08          	mov    %rdx,0x8(%rbp)
  402ac4:	48 b8 61 62 6c 65 20 	movabs $0x206f7420656c6261,%rax
  402acb:	74 6f 20 
  402ace:	48 ba 77 72 69 74 65 	movabs $0x6f74206574697277,%rdx
  402ad5:	20 74 6f 
  402ad8:	48 89 45 10          	mov    %rax,0x10(%rbp)
  402adc:	48 89 55 18          	mov    %rdx,0x18(%rbp)
  402ae0:	48 b8 20 74 68 65 20 	movabs $0x7365722065687420,%rax
  402ae7:	72 65 73 
  402aea:	48 ba 75 6c 74 20 73 	movabs $0x7672657320746c75,%rdx
  402af1:	65 72 76 
  402af4:	48 89 45 20          	mov    %rax,0x20(%rbp)
  402af8:	48 89 55 28          	mov    %rdx,0x28(%rbp)
  402afc:	66 c7 45 30 65 72    	movw   $0x7265,0x30(%rbp)
  402b02:	c6 45 32 00          	movb   $0x0,0x32(%rbp)
  402b06:	89 df                	mov    %ebx,%edi
  402b08:	e8 d3 e5 ff ff       	callq  4010e0 <close@plt>
  402b0d:	b8 ff ff ff ff       	mov    $0xffffffff,%eax
  402b12:	e9 73 fd ff ff       	jmpq   40288a <submitr+0x2df>
  402b17:	48 b8 45 72 72 6f 72 	movabs $0x43203a726f727245,%rax
  402b1e:	3a 20 43 
  402b21:	48 ba 6c 69 65 6e 74 	movabs $0x6e7520746e65696c,%rdx
  402b28:	20 75 6e 
  402b2b:	48 89 45 00          	mov    %rax,0x0(%rbp)
  402b2f:	48 89 55 08          	mov    %rdx,0x8(%rbp)
  402b33:	48 b8 61 62 6c 65 20 	movabs $0x206f7420656c6261,%rax
  402b3a:	74 6f 20 
  402b3d:	48 ba 72 65 61 64 20 	movabs $0x7269662064616572,%rdx
  402b44:	66 69 72 
  402b47:	48 89 45 10          	mov    %rax,0x10(%rbp)
  402b4b:	48 89 55 18          	mov    %rdx,0x18(%rbp)
  402b4f:	48 b8 73 74 20 68 65 	movabs $0x6564616568207473,%rax
  402b56:	61 64 65 
  402b59:	48 ba 72 20 66 72 6f 	movabs $0x72206d6f72662072,%rdx
  402b60:	6d 20 72 
  402b63:	48 89 45 20          	mov    %rax,0x20(%rbp)
  402b67:	48 89 55 28          	mov    %rdx,0x28(%rbp)
  402b6b:	48 b8 65 73 75 6c 74 	movabs $0x657320746c757365,%rax
  402b72:	20 73 65 
  402b75:	48 89 45 30          	mov    %rax,0x30(%rbp)
  402b79:	c7 45 38 72 76 65 72 	movl   $0x72657672,0x38(%rbp)
  402b80:	c6 45 3c 00          	movb   $0x0,0x3c(%rbp)
  402b84:	89 df                	mov    %ebx,%edi
  402b86:	e8 55 e5 ff ff       	callq  4010e0 <close@plt>
  402b8b:	b8 ff ff ff ff       	mov    $0xffffffff,%eax
  402b90:	e9 f5 fc ff ff       	jmpq   40288a <submitr+0x2df>
  402b95:	48 8d b4 24 30 60 00 	lea    0x6030(%rsp),%rsi
  402b9c:	00 
  402b9d:	48 8d bc 24 30 80 00 	lea    0x8030(%rsp),%rdi
  402ba4:	00 
  402ba5:	ba 00 20 00 00       	mov    $0x2000,%edx
  402baa:	e8 80 f9 ff ff       	callq  40252f <rio_readlineb>
  402baf:	48 85 c0             	test   %rax,%rax
  402bb2:	0f 8e 97 00 00 00    	jle    402c4f <submitr+0x6a4>
  402bb8:	8b 94 24 2c 20 00 00 	mov    0x202c(%rsp),%edx
  402bbf:	81 fa c8 00 00 00    	cmp    $0xc8,%edx
  402bc5:	0f 85 08 01 00 00    	jne    402cd3 <submitr+0x728>
  402bcb:	48 8d b4 24 30 60 00 	lea    0x6030(%rsp),%rsi
  402bd2:	00 
  402bd3:	48 89 ef             	mov    %rbp,%rdi
  402bd6:	e8 95 e4 ff ff       	callq  401070 <strcpy@plt>
  402bdb:	89 df                	mov    %ebx,%edi
  402bdd:	e8 fe e4 ff ff       	callq  4010e0 <close@plt>
  402be2:	b9 04 00 00 00       	mov    $0x4,%ecx
  402be7:	48 8d 3d 22 1b 00 00 	lea    0x1b22(%rip),%rdi        # 404710 <trans_char+0xc0>
  402bee:	48 89 ee             	mov    %rbp,%rsi
  402bf1:	f3 a6                	repz cmpsb %es:(%rdi),%ds:(%rsi)
  402bf3:	0f 97 c0             	seta   %al
  402bf6:	1c 00                	sbb    $0x0,%al
  402bf8:	0f be c0             	movsbl %al,%eax
  402bfb:	85 c0                	test   %eax,%eax
  402bfd:	0f 84 87 fc ff ff    	je     40288a <submitr+0x2df>
  402c03:	b9 05 00 00 00       	mov    $0x5,%ecx
  402c08:	48 8d 3d 05 1b 00 00 	lea    0x1b05(%rip),%rdi        # 404714 <trans_char+0xc4>
  402c0f:	48 89 ee             	mov    %rbp,%rsi
  402c12:	f3 a6                	repz cmpsb %es:(%rdi),%ds:(%rsi)
  402c14:	0f 97 c0             	seta   %al
  402c17:	1c 00                	sbb    $0x0,%al
  402c19:	0f be c0             	movsbl %al,%eax
  402c1c:	85 c0                	test   %eax,%eax
  402c1e:	0f 84 66 fc ff ff    	je     40288a <submitr+0x2df>
  402c24:	b9 03 00 00 00       	mov    $0x3,%ecx
  402c29:	48 8d 3d e9 1a 00 00 	lea    0x1ae9(%rip),%rdi        # 404719 <trans_char+0xc9>
  402c30:	48 89 ee             	mov    %rbp,%rsi
  402c33:	f3 a6                	repz cmpsb %es:(%rdi),%ds:(%rsi)
  402c35:	0f 97 c0             	seta   %al
  402c38:	1c 00                	sbb    $0x0,%al
  402c3a:	0f be c0             	movsbl %al,%eax
  402c3d:	85 c0                	test   %eax,%eax
  402c3f:	0f 84 45 fc ff ff    	je     40288a <submitr+0x2df>
  402c45:	b8 ff ff ff ff       	mov    $0xffffffff,%eax
  402c4a:	e9 3b fc ff ff       	jmpq   40288a <submitr+0x2df>
  402c4f:	48 b8 45 72 72 6f 72 	movabs $0x43203a726f727245,%rax
  402c56:	3a 20 43 
  402c59:	48 ba 6c 69 65 6e 74 	movabs $0x6e7520746e65696c,%rdx
  402c60:	20 75 6e 
  402c63:	48 89 45 00          	mov    %rax,0x0(%rbp)
  402c67:	48 89 55 08          	mov    %rdx,0x8(%rbp)
  402c6b:	48 b8 61 62 6c 65 20 	movabs $0x206f7420656c6261,%rax
  402c72:	74 6f 20 
  402c75:	48 ba 72 65 61 64 20 	movabs $0x6174732064616572,%rdx
  402c7c:	73 74 61 
  402c7f:	48 89 45 10          	mov    %rax,0x10(%rbp)
  402c83:	48 89 55 18          	mov    %rdx,0x18(%rbp)
  402c87:	48 b8 74 75 73 20 6d 	movabs $0x7373656d20737574,%rax
  402c8e:	65 73 73 
  402c91:	48 ba 61 67 65 20 66 	movabs $0x6d6f726620656761,%rdx
  402c98:	72 6f 6d 
  402c9b:	48 89 45 20          	mov    %rax,0x20(%rbp)
  402c9f:	48 89 55 28          	mov    %rdx,0x28(%rbp)
  402ca3:	48 b8 20 72 65 73 75 	movabs $0x20746c7573657220,%rax
  402caa:	6c 74 20 
  402cad:	48 89 45 30          	mov    %rax,0x30(%rbp)
  402cb1:	c7 45 38 73 65 72 76 	movl   $0x76726573,0x38(%rbp)
  402cb8:	66 c7 45 3c 65 72    	movw   $0x7265,0x3c(%rbp)
  402cbe:	c6 45 3e 00          	movb   $0x0,0x3e(%rbp)
  402cc2:	89 df                	mov    %ebx,%edi
  402cc4:	e8 17 e4 ff ff       	callq  4010e0 <close@plt>
  402cc9:	b8 ff ff ff ff       	mov    $0xffffffff,%eax
  402cce:	e9 b7 fb ff ff       	jmpq   40288a <submitr+0x2df>
  402cd3:	48 8d 4c 24 20       	lea    0x20(%rsp),%rcx
  402cd8:	48 8d 35 e9 19 00 00 	lea    0x19e9(%rip),%rsi        # 4046c8 <trans_char+0x78>
  402cdf:	48 89 ef             	mov    %rbp,%rdi
  402ce2:	b8 00 00 00 00       	mov    $0x0,%eax
  402ce7:	e8 f4 e4 ff ff       	callq  4011e0 <sprintf@plt>
  402cec:	89 df                	mov    %ebx,%edi
  402cee:	e8 ed e3 ff ff       	callq  4010e0 <close@plt>
  402cf3:	b8 ff ff ff ff       	mov    $0xffffffff,%eax
  402cf8:	e9 8d fb ff ff       	jmpq   40288a <submitr+0x2df>

0000000000402cfd <init_timeout>:
  402cfd:	85 ff                	test   %edi,%edi
  402cff:	74 26                	je     402d27 <init_timeout+0x2a>
  402d01:	53                   	push   %rbx
  402d02:	89 fb                	mov    %edi,%ebx
  402d04:	78 1a                	js     402d20 <init_timeout+0x23>
  402d06:	48 8d 35 31 f6 ff ff 	lea    -0x9cf(%rip),%rsi        # 40233e <sigalrm_handler>
  402d0d:	bf 0e 00 00 00       	mov    $0xe,%edi
  402d12:	e8 e9 e3 ff ff       	callq  401100 <signal@plt>
  402d17:	89 df                	mov    %ebx,%edi
  402d19:	e8 b2 e3 ff ff       	callq  4010d0 <alarm@plt>
  402d1e:	5b                   	pop    %rbx
  402d1f:	c3                   	retq   
  402d20:	bb 00 00 00 00       	mov    $0x0,%ebx
  402d25:	eb df                	jmp    402d06 <init_timeout+0x9>
  402d27:	c3                   	retq   

0000000000402d28 <init_driver>:
  402d28:	41 54                	push   %r12
  402d2a:	55                   	push   %rbp
  402d2b:	53                   	push   %rbx
  402d2c:	48 83 ec 10          	sub    $0x10,%rsp
  402d30:	49 89 fc             	mov    %rdi,%r12
  402d33:	be 01 00 00 00       	mov    $0x1,%esi
  402d38:	bf 0d 00 00 00       	mov    $0xd,%edi
  402d3d:	e8 be e3 ff ff       	callq  401100 <signal@plt>
  402d42:	be 01 00 00 00       	mov    $0x1,%esi
  402d47:	bf 1d 00 00 00       	mov    $0x1d,%edi
  402d4c:	e8 af e3 ff ff       	callq  401100 <signal@plt>
  402d51:	be 01 00 00 00       	mov    $0x1,%esi
  402d56:	bf 1d 00 00 00       	mov    $0x1d,%edi
  402d5b:	e8 a0 e3 ff ff       	callq  401100 <signal@plt>
  402d60:	ba 00 00 00 00       	mov    $0x0,%edx
  402d65:	be 01 00 00 00       	mov    $0x1,%esi
  402d6a:	bf 02 00 00 00       	mov    $0x2,%edi
  402d6f:	e8 ac e4 ff ff       	callq  401220 <socket@plt>
  402d74:	85 c0                	test   %eax,%eax
  402d76:	0f 88 8a 00 00 00    	js     402e06 <init_driver+0xde>
  402d7c:	89 c3                	mov    %eax,%ebx
  402d7e:	48 8d 3d 97 19 00 00 	lea    0x1997(%rip),%rdi        # 40471c <trans_char+0xcc>
  402d85:	e8 86 e3 ff ff       	callq  401110 <gethostbyname@plt>
  402d8a:	48 85 c0             	test   %rax,%rax
  402d8d:	0f 84 c6 00 00 00    	je     402e59 <init_driver+0x131>
  402d93:	48 89 e5             	mov    %rsp,%rbp
  402d96:	48 c7 44 24 02 00 00 	movq   $0x0,0x2(%rsp)
  402d9d:	00 00 
  402d9f:	c7 45 0a 00 00 00 00 	movl   $0x0,0xa(%rbp)
  402da6:	66 c7 45 0e 00 00    	movw   $0x0,0xe(%rbp)
  402dac:	66 c7 04 24 02 00    	movw   $0x2,(%rsp)
  402db2:	48 8b 48 18          	mov    0x18(%rax),%rcx
  402db6:	48 63 50 14          	movslq 0x14(%rax),%rdx
  402dba:	48 8d 7d 04          	lea    0x4(%rbp),%rdi
  402dbe:	48 8b 31             	mov    (%rcx),%rsi
  402dc1:	e8 ca e3 ff ff       	callq  401190 <memmove@plt>
  402dc6:	66 c7 44 24 02 3c 9a 	movw   $0x9a3c,0x2(%rsp)
  402dcd:	ba 10 00 00 00       	mov    $0x10,%edx
  402dd2:	48 89 ee             	mov    %rbp,%rsi
  402dd5:	89 df                	mov    %ebx,%edi
  402dd7:	e8 24 e4 ff ff       	callq  401200 <connect@plt>
  402ddc:	85 c0                	test   %eax,%eax
  402dde:	0f 88 e7 00 00 00    	js     402ecb <init_driver+0x1a3>
  402de4:	89 df                	mov    %ebx,%edi
  402de6:	e8 f5 e2 ff ff       	callq  4010e0 <close@plt>
  402deb:	66 41 c7 04 24 4f 4b 	movw   $0x4b4f,(%r12)
  402df2:	41 c6 44 24 02 00    	movb   $0x0,0x2(%r12)
  402df8:	b8 00 00 00 00       	mov    $0x0,%eax
  402dfd:	48 83 c4 10          	add    $0x10,%rsp
  402e01:	5b                   	pop    %rbx
  402e02:	5d                   	pop    %rbp
  402e03:	41 5c                	pop    %r12
  402e05:	c3                   	retq   
  402e06:	48 b8 45 72 72 6f 72 	movabs $0x43203a726f727245,%rax
  402e0d:	3a 20 43 
  402e10:	48 ba 6c 69 65 6e 74 	movabs $0x6e7520746e65696c,%rdx
  402e17:	20 75 6e 
  402e1a:	49 89 04 24          	mov    %rax,(%r12)
  402e1e:	49 89 54 24 08       	mov    %rdx,0x8(%r12)
  402e23:	48 b8 61 62 6c 65 20 	movabs $0x206f7420656c6261,%rax
  402e2a:	74 6f 20 
  402e2d:	48 ba 63 72 65 61 74 	movabs $0x7320657461657263,%rdx
  402e34:	65 20 73 
  402e37:	49 89 44 24 10       	mov    %rax,0x10(%r12)
  402e3c:	49 89 54 24 18       	mov    %rdx,0x18(%r12)
  402e41:	41 c7 44 24 20 6f 63 	movl   $0x656b636f,0x20(%r12)
  402e48:	6b 65 
  402e4a:	66 41 c7 44 24 24 74 	movw   $0x74,0x24(%r12)
  402e51:	00 
  402e52:	b8 ff ff ff ff       	mov    $0xffffffff,%eax
  402e57:	eb a4                	jmp    402dfd <init_driver+0xd5>
  402e59:	48 b8 45 72 72 6f 72 	movabs $0x44203a726f727245,%rax
  402e60:	3a 20 44 
  402e63:	48 ba 4e 53 20 69 73 	movabs $0x6e7520736920534e,%rdx
  402e6a:	20 75 6e 
  402e6d:	49 89 04 24          	mov    %rax,(%r12)
  402e71:	49 89 54 24 08       	mov    %rdx,0x8(%r12)
  402e76:	48 b8 61 62 6c 65 20 	movabs $0x206f7420656c6261,%rax
  402e7d:	74 6f 20 
  402e80:	48 ba 72 65 73 6f 6c 	movabs $0x2065766c6f736572,%rdx
  402e87:	76 65 20 
  402e8a:	49 89 44 24 10       	mov    %rax,0x10(%r12)
  402e8f:	49 89 54 24 18       	mov    %rdx,0x18(%r12)
  402e94:	48 b8 73 65 72 76 65 	movabs $0x6120726576726573,%rax
  402e9b:	72 20 61 
  402e9e:	49 89 44 24 20       	mov    %rax,0x20(%r12)
  402ea3:	41 c7 44 24 28 64 64 	movl   $0x65726464,0x28(%r12)
  402eaa:	72 65 
  402eac:	66 41 c7 44 24 2c 73 	movw   $0x7373,0x2c(%r12)
  402eb3:	73 
  402eb4:	41 c6 44 24 2e 00    	movb   $0x0,0x2e(%r12)
  402eba:	89 df                	mov    %ebx,%edi
  402ebc:	e8 1f e2 ff ff       	callq  4010e0 <close@plt>
  402ec1:	b8 ff ff ff ff       	mov    $0xffffffff,%eax
  402ec6:	e9 32 ff ff ff       	jmpq   402dfd <init_driver+0xd5>
  402ecb:	48 b8 45 72 72 6f 72 	movabs $0x55203a726f727245,%rax
  402ed2:	3a 20 55 
  402ed5:	48 ba 6e 61 62 6c 65 	movabs $0x6f7420656c62616e,%rdx
  402edc:	20 74 6f 
  402edf:	49 89 04 24          	mov    %rax,(%r12)
  402ee3:	49 89 54 24 08       	mov    %rdx,0x8(%r12)
  402ee8:	48 b8 20 63 6f 6e 6e 	movabs $0x7463656e6e6f6320,%rax
  402eef:	65 63 74 
  402ef2:	48 ba 20 74 6f 20 73 	movabs $0x76726573206f7420,%rdx
  402ef9:	65 72 76 
  402efc:	49 89 44 24 10       	mov    %rax,0x10(%r12)
  402f01:	49 89 54 24 18       	mov    %rdx,0x18(%r12)
  402f06:	66 41 c7 44 24 20 65 	movw   $0x7265,0x20(%r12)
  402f0d:	72 
  402f0e:	41 c6 44 24 22 00    	movb   $0x0,0x22(%r12)
  402f14:	89 df                	mov    %ebx,%edi
  402f16:	e8 c5 e1 ff ff       	callq  4010e0 <close@plt>
  402f1b:	b8 ff ff ff ff       	mov    $0xffffffff,%eax
  402f20:	e9 d8 fe ff ff       	jmpq   402dfd <init_driver+0xd5>

0000000000402f25 <driver_post>:
  402f25:	53                   	push   %rbx
  402f26:	4c 89 cb             	mov    %r9,%rbx
  402f29:	45 85 c0             	test   %r8d,%r8d
  402f2c:	75 18                	jne    402f46 <driver_post+0x21>
  402f2e:	48 85 ff             	test   %rdi,%rdi
  402f31:	74 05                	je     402f38 <driver_post+0x13>
  402f33:	80 3f 00             	cmpb   $0x0,(%rdi)
  402f36:	75 32                	jne    402f6a <driver_post+0x45>
  402f38:	66 c7 03 4f 4b       	movw   $0x4b4f,(%rbx)
  402f3d:	c6 43 02 00          	movb   $0x0,0x2(%rbx)
  402f41:	44 89 c0             	mov    %r8d,%eax
  402f44:	5b                   	pop    %rbx
  402f45:	c3                   	retq   
  402f46:	48 89 ce             	mov    %rcx,%rsi
  402f49:	48 8d 3d e4 17 00 00 	lea    0x17e4(%rip),%rdi        # 404734 <trans_char+0xe4>
  402f50:	b8 00 00 00 00       	mov    $0x0,%eax
  402f55:	e8 56 e1 ff ff       	callq  4010b0 <printf@plt>
  402f5a:	66 c7 03 4f 4b       	movw   $0x4b4f,(%rbx)
  402f5f:	c6 43 02 00          	movb   $0x0,0x2(%rbx)
  402f63:	b8 00 00 00 00       	mov    $0x0,%eax
  402f68:	eb da                	jmp    402f44 <driver_post+0x1f>
  402f6a:	48 83 ec 08          	sub    $0x8,%rsp
  402f6e:	41 51                	push   %r9
  402f70:	49 89 c9             	mov    %rcx,%r9
  402f73:	49 89 d0             	mov    %rdx,%r8
  402f76:	48 89 f9             	mov    %rdi,%rcx
  402f79:	48 89 f2             	mov    %rsi,%rdx
  402f7c:	be 9a 3c 00 00       	mov    $0x3c9a,%esi
  402f81:	48 8d 3d 94 17 00 00 	lea    0x1794(%rip),%rdi        # 40471c <trans_char+0xcc>
  402f88:	e8 1e f6 ff ff       	callq  4025ab <submitr>
  402f8d:	48 83 c4 10          	add    $0x10,%rsp
  402f91:	eb b1                	jmp    402f44 <driver_post+0x1f>

0000000000402f93 <check>:
  402f93:	89 f8                	mov    %edi,%eax
  402f95:	c1 e8 1c             	shr    $0x1c,%eax
  402f98:	74 1d                	je     402fb7 <check+0x24>
  402f9a:	b9 00 00 00 00       	mov    $0x0,%ecx
  402f9f:	83 f9 1f             	cmp    $0x1f,%ecx
  402fa2:	7f 0d                	jg     402fb1 <check+0x1e>
  402fa4:	89 f8                	mov    %edi,%eax
  402fa6:	d3 e8                	shr    %cl,%eax
  402fa8:	3c 0a                	cmp    $0xa,%al
  402faa:	74 11                	je     402fbd <check+0x2a>
  402fac:	83 c1 08             	add    $0x8,%ecx
  402faf:	eb ee                	jmp    402f9f <check+0xc>
  402fb1:	b8 01 00 00 00       	mov    $0x1,%eax
  402fb6:	c3                   	retq   
  402fb7:	b8 00 00 00 00       	mov    $0x0,%eax
  402fbc:	c3                   	retq   
  402fbd:	b8 00 00 00 00       	mov    $0x0,%eax
  402fc2:	c3                   	retq   

0000000000402fc3 <gencookie>:
  402fc3:	53                   	push   %rbx
  402fc4:	83 c7 01             	add    $0x1,%edi
  402fc7:	e8 84 e0 ff ff       	callq  401050 <srandom@plt>
  402fcc:	e8 8f e1 ff ff       	callq  401160 <random@plt>
  402fd1:	89 c3                	mov    %eax,%ebx
  402fd3:	89 c7                	mov    %eax,%edi
  402fd5:	e8 b9 ff ff ff       	callq  402f93 <check>
  402fda:	85 c0                	test   %eax,%eax
  402fdc:	74 ee                	je     402fcc <gencookie+0x9>
  402fde:	89 d8                	mov    %ebx,%eax
  402fe0:	5b                   	pop    %rbx
  402fe1:	c3                   	retq   
  402fe2:	66 2e 0f 1f 84 00 00 	nopw   %cs:0x0(%rax,%rax,1)
  402fe9:	00 00 00 
  402fec:	0f 1f 40 00          	nopl   0x0(%rax)

0000000000402ff0 <__libc_csu_init>:
  402ff0:	41 57                	push   %r15
  402ff2:	49 89 d7             	mov    %rdx,%r15
  402ff5:	41 56                	push   %r14
  402ff7:	49 89 f6             	mov    %rsi,%r14
  402ffa:	41 55                	push   %r13
  402ffc:	41 89 fd             	mov    %edi,%r13d
  402fff:	41 54                	push   %r12
  403001:	4c 8d 25 08 3e 00 00 	lea    0x3e08(%rip),%r12        # 406e10 <__frame_dummy_init_array_entry>
  403008:	55                   	push   %rbp
  403009:	48 8d 2d 08 3e 00 00 	lea    0x3e08(%rip),%rbp        # 406e18 <__do_global_dtors_aux_fini_array_entry>
  403010:	53                   	push   %rbx
  403011:	4c 29 e5             	sub    %r12,%rbp
  403014:	48 83 ec 08          	sub    $0x8,%rsp
  403018:	e8 e3 df ff ff       	callq  401000 <_init>
  40301d:	48 c1 fd 03          	sar    $0x3,%rbp
  403021:	74 1b                	je     40303e <__libc_csu_init+0x4e>
  403023:	31 db                	xor    %ebx,%ebx
  403025:	0f 1f 00             	nopl   (%rax)
  403028:	4c 89 fa             	mov    %r15,%rdx
  40302b:	4c 89 f6             	mov    %r14,%rsi
  40302e:	44 89 ef             	mov    %r13d,%edi
  403031:	41 ff 14 dc          	callq  *(%r12,%rbx,8)
  403035:	48 83 c3 01          	add    $0x1,%rbx
  403039:	48 39 dd             	cmp    %rbx,%rbp
  40303c:	75 ea                	jne    403028 <__libc_csu_init+0x38>
  40303e:	48 83 c4 08          	add    $0x8,%rsp
  403042:	5b                   	pop    %rbx
  403043:	5d                   	pop    %rbp
  403044:	41 5c                	pop    %r12
  403046:	41 5d                	pop    %r13
  403048:	41 5e                	pop    %r14
  40304a:	41 5f                	pop    %r15
  40304c:	c3                   	retq   
  40304d:	0f 1f 00             	nopl   (%rax)

0000000000403050 <__libc_csu_fini>:
  403050:	c3                   	retq   

Disassembly of section .fini:

0000000000403054 <_fini>:
  403054:	48 83 ec 08          	sub    $0x8,%rsp
  403058:	48 83 c4 08          	add    $0x8,%rsp
  40305c:	c3                   	retq   
